(dp1
S'Inner Harbor/Federal Hill'
p2
(S'{wvnFbmprMfOoU{@kWnKfEnAz@f@nARg@zEjC`GrCELnGxCoKpb@c@nBC^FzB@vANhIF`IFvALvIvHq@XAlAL`@rZaLXNrN}DJcBHiCfKIv@eC_A}HqC{CoA{Ae@eAY{AWu@Tg@Te@Zw@t@}B~Eq@rDWfAuB~KYdASf@e@x@_@f@c@b@k@`@cEpBaA\\}FpCcEhBIkCUuOEmGIsC?}@DqCc@uZEsA@_AQsKE}DA_HMcHQiNEiCE{@?gAG{CbFkAbAYt@O@j@lCKEm@hC[`@IXA?Aj@IF?DED@FEF?BOB@NiAjK_AzEsDz@g@'
S'B@@???????@??@?????@??@A@@?@?@????@???@???????@??????A?????????????????@??????????????????@@?B'
tp3
sS'Southwest Baltimore'
p4
(S'qsynFdmwrMrGQtGG~JSbj@qAfCjHf@d@nF|JvGb`@f@pDbBrI?bGnAbGz@xBnFnKjCbBbAd@WBcAp@EJETQd@Mj@Ab@J\\D`@Bv@HvAi@vAsF|BqBdA}B~@wKdFQa@}B{D_DrCUPWHWDwAAk@Eg@I{Cu@WCw@HSAQGaCeASGSCa@FcAb@QLOPa@n@{@~@ORUt@Q|Aa@|AOz@Gf@Ad@?bBEt@AdACTGRKNa@d@ES{@z@gYnUcGbLiC\\G}JUkNfA{AhAeBh@eANg@Lk@Fk@Bm@KwLGkBI_FgA}v@E@SgQAgCQkLo@ye@'
S'B???@??@????@?@?A????@??????@???@?@???@??????????@??@????@??????????@???@@A?@??????@????????B'
tp5
sS'Mt Washington/Coldspring'
p6
(S'arfoF`wyrMdAB|AA|AGlFe@jIeAdAc@v@g@lBaB|@{@n@w@rA}@lAg@|Ai@bKgDvDgAz@Mv@CnA@`SvBpEb@V`F\\bJRz@JRNl@Rl@Vh@|@vA|@bBlAzAnFhIj@rAXpAZvBl@pDj@pB|@dBVl@Rt@Hv@u@Oa@Q]SuAuAi@a@a@S}@Q[Ca@Hg@Pk@\\eFxGk@d@o@b@o@XgBf@_@Dc@Am@IsGiA}@EwHf@_D`@yCVm@BeF\\uBPgAPsAVoBXe@As@S[OYUUYS_@w@aBYRnAhEThALfAFrB?~@C~@_@vCSdA}@tBw@jAiArAqF~E_@TL\\LjApChZmGp@w@RcItA}B\\Y?e@IgEgAOC]B]RUPeGjF}AlAsA|@YC}@Tw@^qBl@g@Te@XeD|Eg@z@}GlHWRgDpAmB`@qBd@_@Lq@NaAHiADABAopDxAYrD{@hMmDp@MhBSjAUjAs@r@YvEa@bSyEdD}@X|AJ~@PvDV`C^VhAtH'
S'B????@?????@????@???@??@????????@???????A???????@????????@???@????????@??????@????@???@????@??@???@????@????@?????@???@???????AA??????????@?????B'
tp7
sS'Canton'
p8
(S'cuwnFxmkrMk@sb@d]}@jK[x@ETD@KvCAVPb@`@nChDnAjCfTr]sb@fw@ka@nAgE{@@n@{KZUcPiEHu]`Aa@{YMwGSsP|c@iANvG|@Cx@@`HU'
S'B@?????@????A@???@@?A??@@@??B'
tp9
sS'Chinquapin Pk/Belvedere'
p10
(S'}yhoF~yqrM?}kAR_Ab@RRDd@CTGNJDHFFLBT?VLRd@z@`BVR^NRVRl@Xl@Pn@DBTD\\Rf@r@HB\\`@RNTZRLDHo@Z@DB?TOb@MTDLFHPBBd@BZ?^KFERGb@Up@WVQHOR{@B?p@\\HHNHJ@JARQVE\\QnCs@lAWFEDQLKJSFCBBFMH?LK@Er@YP@DFJCNOTe@ROVG^?l@Op@c@d@OB@V\\p@N^A\\F\\LT@\\?n@KNDN?DFAHDF@GBAFD\\?TBDDVIL?pAa@N?DDVJ`@?HCl@Eb@Ir@ErAYdA_@lAo@pCuBx@q@x@y@|AeBJEFMf@?`@ONQ@BDAEH@BJU@BNCX[N]RQh@UNCPKpA]HGAHB@HOPBXLLCVBJhG?~BAn@kCn_@_Dhn@wPH{CAgYFcDA{AEuIG_CAiCEyPEmHI'
S'B?@?????????@???????????????????@????????@?????????????@??????????????????????????@???????????????????@???????????@????????????????????@???????????A????A?????????B'
tp11
sS'Cross-Country/Cheswolde'
p12
(S'yyhoFh_`sM?}XhAE`AIp@O^MpBe@lBa@fDqAVS|GmHf@{@dD}Ed@Yf@UpBm@v@_@|@UXBrA}@pAxC`@n@pDtEDEPRp@jAf@jA\\p@fCfG~a@|`A]r@k@tAkJlV_Oh]i@fAem@vw@yVvZG?CgtD'
S'B@??????@???@??????A?????@???A????@?A?B'
tp13
sS'Morrell Pk/Violetville'
p14
(S'gdunFvszrM_@yBOuAKuAGeC@wCmAeDLkDAs@D_@P_ATo@Ry@bAyBhAiZh@s@KwHz@yQ^cG`@iFNPjCfEzTnZrDbGvItMnI|NfEbGrIjM~Hb[bG~R~@tAqjBruFPiCrDce@mA_SB_@EDM?EWQMKAGHCAQSSCk@]QCa@SMCYYYAOIm@Ge@OK?GKGA[WUMKMGAOSAUCKMUSSAQc@_AU]QMQSEW?OK[IECGAODw@Ak@DMDeALU@M?KIWEk@AWQOOg@KAMMc@k@a@}@GGI_@Oc@MSEGYI?q@EMYU?CFAAGEEG?_@JMGc@u@ISKOOIAGBOIa@BYHWZW\\e@Nm@@U?SGMMMc@SGIEO@MVq@Is@GkAD_@L[Bw@^g@pAu@NOZo@HCNOF?HGTW?QHMJKNCFCJSDSd@c@Zk@VKNALGN?`@a@fBaCFWEDAa@BIACG@?UT[@O{EyCkC{Tb@wMBgSz@kCwBwBoAwLk@iBVOPEH?FFHn@BBJC@KMa@CO@[HSFIF?Nc@b@k@ZMj@g@`Am@XUPWTOFWX_@X{@Fc@BcAC[m@_BEGYGWSWKk@OQ]m@m@YUCK@GPBLCK?KEYa@MYESEeACw@Ea@K]@c@Lk@Pe@H_@bAq@JEL?fAh@jC?vRmB'
S'B???????@????@?????A???????@??AA?@?@?????????????????????????@?????????????@??????????@????????????????????????????@?????@????????????@??????????????????????@?????????@@@??@@?@??????@????@?????????????@??@???????????????@????????@?????B'
tp15
sS'Belair-Edison'
p16
(S'g{~nFd`hrMIQE]DG?CU_AEYGK_@yC@g@Fy@DIFWr@m@b@k@Zg@PQd@e@x@m@nAm@^IxAg@PAF@L\\@PBACg@HMn@K\\D`@CNCTOXw@PSxC|EzCxFjBbEfBhDdAhCxBhHzAjF\\lBNhB@p@J`N\\bQBhDCf@Qx@_@~@{C`FM\\I\\Cd@?ZFXh@v@FfAJdn@CzEgAsA?xC{@nK{Eja@u@hIGBGJIZaA~Gy@vGSn@gAiA]e@c@YeDsDyEyEwE_FiBeByA_Bm@{@eCcE}C}Fe@k@{HqG_DaC}@m@qFcEe@_@s@s@FK][aBiByJmLa@m@iDgGoAoBu@gAyBoCsDaEAm@FWAMXsBGiAFM\\_@DER?NGLB\\RJZnBHf@AXIRQ`@i@f@}@La@`@w@J[Fc@BCJC\\uABGLCDG@g@\\qAf@oAT{@Tg@`@kADYNa@@a@FK`@gABY?]RWNMx@c@LCv@c@b@K`@Ed@HZPRj@TJ\\b@t@nARTBFVPVBRGHGPDRMLEFGLWb@k@Dc@?g@Qq@OOIYYa@W}@[q@IKWkACU@IDILGdBY`@QVOrAmCRYD?B@BEHYz@_CRUh@}@VaB@eAEYBO?g@J{AHMViAFe@?q@Hs@j@g@DAPAVo@\\YPU\\Ur@o@RMHKh@_@|@gAh@e@z@k@b@MF?l@\\TB^ATEz@[XOTWHCT_@FYAm@Qy@AQ'
S'B???????????@?????@????????????????@????@???@???@??????@?????@@?????????A???????@???@?????@?????????A??????@???????@???@???????????????????????@?????@????????@??????@???@?????????@????@????????@??????????@?????????????@?????????@????B'
tp17
sS'Perkins/Middle East'
p18
(S'ox{nFvporMqAa|@|Tg@lGStISpAG?FfCEvAE?GbBGbIU|Q_@tBIp@pf@}@@sEPiA@w@AqADAlAFjAlBfK^dC`BpHVbCNj@uGDkFXgRl@SkNu[t@sM^'
S'B@???????????A@????@??????@??@@?B'
tp19
sS'Upton/Druid Hts'
p20
(S'mi|nF~|urM~C_Ex@kA`ToX\\]XKTb@TUvCmE`DwD|B_DNg@`@w@PU~AtBv@~@b@b@`BvAj@j@pAzAnFhHdBvBpAfBpA|An@d@h@Zh@Ph@L|@HBVFvCHfHDrAH`AIx@HhDuD|AgLjFqAt@aBv@iCbAwB~@wHnDaZvMqCnA_@XcBt@yNvQqBjCu@qe@C_CGGQaIp@mANe@Zg@`L{N'
S'B????????????@?????????@????A??????@??????????@?A???@???B'
tp21
sS'Greater Rosemont'
p22
(S'qt|nFr}yrMp[u@@HtIQf@sDf@_D?mAbGxErD~CfEbBfEf@h@BEmDv]u@fA|v@H~EFjBJvLCl@Gj@Mj@Of@i@dAiAdBgAzATjNJlNm@d@{JRIA@z@DHLNQj@eAfA]TQVK^W^}@dAo@z@URGJSHQB]?]@{@Zy@Rk@F_@?YJy@JYJe@HYBUFiAHYHQCo@i@[?gAb@[VYJc@`@MPKDGVyBaBa@Sm@S{@Ia@?]B_IfBy@Nc@@{@CQERp@Hn@RhAZnA@\\GX_@n@e@j@w@t@KN_@hAET?x@@f@P~ANnCCXGXYp@y@z@o@fAGNsAU{AMmB?}@H_BZsAb@y@j@MXg@\\a@@Y}UGsGEaCMyB@yDu@gm@KaGUuSuHPeAFoBN_Dj@UkB_@mCc@{B~SOvGRrDRVC}@eu@'
S'B??@??@?@?@?@@???A??????@?@??@???@?????????@?????????????????@??????@???@??????@????@?????@???????@??@???@?????A???????@???@??@???@B'
tp23
sS'Dorchester/Ashburton'
p24
(S'gzboFnc`sM~EiUf@kH~CwGvGkMrD{E~F{L`CgKh@kA~IwP`H}@pYmFf^bBVCiBzJ[nAe@vBcFhWsLxl@a@lCF@yArHtJtDI`@mCrAbB`IJl@dCbMbEjSQ?QCm^oNcAhFgB?sCHqB|L{H}CsGoCeLCoBBsDAaSBAeU@iDAyCEeBDg@y@i@w@}@'
S'B?@??????@?@?A???????@@?@???A??@@?@@?@???@????@?B'
tp25
sS'Cherry Hill'
p26
(S's~rnFnntrMv`@_oA?wL~\\~CrNfO~C~Crb@vLSbBcBzh@sDn_@cBfEgJfJgOvLwQzJgOnAmN|@yPsE_@Gv@k@Z[h@{@L_@ECHYRqAkBuFwBwG{Js]z@_Df@wB'
S'B@A@?@A??@?@?A?@?@??????@??@?B'
tp27
sS'Medfield/Hampden/Woodberry'
p28
(S'gh_oFnzsrMbIWjf@qA`FQjBCjA?hAG~BGhDMb@@@lEJfIFxBAhBeCpFw@rAcB`CeBbBDnBmAv@eE`EkC`CkBhBeDzCw@l@W^K\\Ab@KkAxDqG}BfAkE~AmA^yAb@oCf@cDt@oCrA{F`DqAv@_DbBsA|@k@d@gAlAaA~AeCtEu@vAYp@q@nBMd@a@tB{@jKKp@Mp@k@|A[j@]f@k@j@y@lDaLlI{@bBRbBRjCwB?wBz@f@bB~C~Cz@rIcGjWMp@nAtEn@lCP`@uMpG}@l@_@\\YP[L]Da@@gCGi@?i@F_@HwAf@]DkJf@cAPc@Nk@\\aDlDQLSJk@LkD`@WRiA^Y`@Aa@K{@Su@Wm@}@eBk@qBm@qD[wBYqAk@sAoFiImA{A}@cB}@wAWi@Sm@Om@KSS{@]cJc@uIQqEAeCDuAVoCLy@H[\\gAn@_Bh@q@fDkF`@u@\\_A`@K`@uALo@NiB@aBOkBKm@sAiFcAsDWs@t@O|@ItASv@O|@YvAw@t@o@TYr@iAjBuDd@s@|@}@dAo@RQf@m@Xq@H_@JiA?oBK}BIuAGaB?k@FsAFg@Je@L]Zk@\\e@|EkFv@iAZk@JW_@KxBkEtAaCb@@j@NZAd@JnB?j@Gd@FLOPCLU`@]\\O\\]t@m@JAZFfA~AXXx@^v@`@b@Pf@BXNXZTLP\\NdAB`@JVHx@FRNJ?BC@?BHBFHH@BBN?BDB?B@DAJFH?PEVFLKN?HGLADIx@k@BED@HEJ?FGJED?FCP?FEZAXIb@CRG\\Gd@MXELGTUJ?XKP?h@JP@h@L`A?f@CVHV@F@LALMNEN?ZHf@z@bBmAcCyG?iBJQ~BeB\\[TYZk@|@kC^uA`@_ASmB^~@dAc@ZBh@AbDG'
S'B????????@???A????@????????@?@?????@???@????@????????????@@??@?@?@@?@??@????@?????????@???@?????A????????@?????????@?????@???????????@?????A?????@????????@??????????@?????????@??????@????????@????????@???????????????????@?????????????????????????????@??????????????@@?@????@???@????B'
tp29
sS'Washington Village'
p30
(S'u`xnF`iurMbEiB|FqC`A]pCsAp@]j@a@b@c@f@s@\\m@\\}@No@tB_LVgAp@sD|B_Fv@u@d@[f@Ut@UzAVdAXzAd@zCnA|HpCtI~CjShHfBp@`An@n@h@l@l@j@p@b@x@X@d@Ad@Ef@Of@Ul@i@ObCY|Ca@zCu@pEQbAUp@OxAc@nC_AvHiArIu@nGiA|K_ApL_@bGg@zJS|EJvHi@r@iAhZcAxBSx@Un@W|A@t@MjDlAdDAvCFdCJtANtA^xBwRlBkC?kCoAkCcBoFoK{@yBoAcG?cGcBsIg@qDwGc`@oF}Jg@e@gCkHuQ`@sA_w@GeH'
S'B??????@??????@????@???????@????@?????A???????????@??????@???@???????A?@?@??@???@??@@?B'
tp31
sS'Edmonson Village'
p32
(S'yoynF`v`sMXtT[?uBHK^}@`Be@bA?\\FlASB}A~B}AZcA~AU[iBqBuFvJwDcEMI]GwI|LkCcBoAbBSd@Oi@_@c@USa@Io@?YD_@Pi@XUHa@\\k@^c@HQ?]IK]IMm@KUIIAQOOWKY@aC|@qFL{A?_BCYSu@KYQSSa@Ys@?UGY@gABk@To@TUXi@XR@CAGSO@IA_@Og@EKa@UGOWYMu@Cm@@c@VM^]JW?e@G[IOW[YUk@MKEGIkA_DI[MiAB_@KSQkCGW?g@DFBAKiBsAcGAyAHk@Vg@Ro@Vk@XmAXk@FSj@w@t@w@^e@\\[b@YLMFCHOJMH_@B]HID[HQDYfAmDRg@CSH[@IACD]N[@Mx@yB`@k@`A{@t@aAZ[XU\\A^QDEH_@JGLQ`@a@ZKZWdAc@\\?n@h@PBXIhAITGXCd@IXKx@KXK^?j@Gx@Sz@[\\A\\?XEJGFK\\[f@s@~@iAT[J_@LSb@[bAeAPk@MOEIA{@H@zJSl@e@P~GFxGHbERfRT|NNzPXtS'
S'B@?@????@???@?@@??@@@?@???@???????@???????A?????@????????@?????@?????????@??????@???????@???????????@??????????????@???????????????????@??????????@?????????????????@?????????@???@??A??????B'
tp33
sS'Northwood'
p34
(S'miboFhmkrMFPBCNv@PVHXb@f@DRHHh@L^@p@PN?LEJ@FFDAHHTDRAL@^AL@X?p@Jb@VP?~A`@ZRK\\EBGACSICM?QFOREHA~@OPGf@MBIJCLBr@Et@VADo@Aq@RMHU@UJKDKB_ABGLIDNLHJ@FCJEDIPg@R?\\KFKHBTILMJAXSPGPSPMlAcBRSJm@FIDC\\PHL@JC`@EVMPUj@k@v@DFj@w@ZWHYP]?GIWFc@CGc@]Yk@EQ?i@rD`ExBnCt@fAnAnBhDfGdAtAtIdK`BhB\\ZGJVV`Az@jBtAYh@MZI^Er@?vKCj@E^Ll@@N?tFcDIe@ECzA@dLAxSs@A{MAoCBwCAeCHsANg@CyBw@bA|AoAj@o@`@cA`A{BvCi@l@yEjG_AbAaA|@qBvAk@\\sAn@m@PiARmCJ{DWaPo@c@B}@A}y@iHoAMQGVgDFiB@u@]qSKgBOkAQu@g@cBmAgCg@mAa@cBSgBIeEYke@@}ABi@PsAl@{BzBoHNq@R}ABa@@_BAs@g@_GaAmB~DwLP}AVTHLPJVHR^t@`ArBrBLR@VKX@ZIT?ZGVChBJ|CCdABv@DLDb@DRR^VPN@XIXOXWr@a@N@TKD@DCF?LKJEJ?JIHFJGTEZHFCLBTEJ@DCVKPBZFFDDDHTLNBHENDd@?p@CHa@f@a@Z]p@Wz@E\\Cp@BPHZXb@LF\\HPN@LXr@NJZvAB\\Jb@LX@VFPLNBHNLJNZZ^NP?JELBF?NILKLYJa@Da@DIr@[n@St@DPHHHp@RFA^Df@UL?RELMFFXCJDL?XEP?dDaAh@KX@r@Gb@XHVPJDCP?DHN?b@LBDHB?BWEc@KADB@lAf@ZDZLL@HEJLDApBZ^@XJXB^H^@l@GHUFEAGDI@m@IkA[y@?WE]Ac@GW@SBMAq@N_AZ[J_@TMAGFID??DD@FOBKB?HGPE^EHKJBBEECJCBKXCn@SF?B@h@[RS\\s@?IHM@MHMDUJS@MECf@y@@D@CDI?ODSPYLKB@B?DONGFKT?FH@JJRHn@L^'
S'B???????@???????????????????@????????????????@?????????@????????????????@??????@????????@?@?????????@????????????@?????????@?@??A???????@@??????@?????@????@??A???@???????@?@???????@???@?A???????@?????????????@?????????????????@????????????@???????????@???????????????????@???????????@?????@?????????????@????????????????????????????@??????????????@????????????????????????@??????????????????????@?????B'
tp35
sS'Poppleton/The Terraces/Hol'
p36
(S'opxnFlkwrMwP\\uGFsGPq@}d@MyEAk@Hy@IaAEsAIgHGwCCWl@FdDDnAE`BKjAGxE[~@ClA@jAFpC\\r@RXBfDp@l@Hx@BdBCvA[x@[jAo@FdHrA~v@uQd@'
S'B??@????????A???????@??????@???@?@B'
tp37
sS'Highlandtown'
p38
(S'_iynFv}irMq@ih@xA?hPg@fLYfBIn`@aA`Dz@nF~CtDfEVhNXlXBz@mk@zAiEHkENQuNy]~@'
S'B@????@??A??@??@@B'
tp39
sS'Patterson Pk N&E'
p40
(S'ccznFjvlrMaA_r@M}F?kDEmCiLJQkP|EK~FSpy@{BPtNjEOhEIlEMj@rb@aHTy@A}@BOwG}c@hARrPLvGFdHn@ra@uBH}Q^{ENa@wX'
S'B???@@A??@@??A@??@@@???@??@B'
tp41
sS'Fells Point'
p42
(S'q_xnFblmrMzK[Ao@fEz@ja@oAkCrS~Cn_@z@jWgOnUcGoKOQwBg@WAcBoFg@g@I@ADOHsJ\\gERGuBm@s_@oEHwRh@}IRgAuw@t]aAhEITbP'
S'B???@@?@A?@???@????@?@??@@?@B'
tp43
sS'Allendale/Irvington/S. Hil'
p44
(S'yrynFlc~rMEaESyHAuAhC]bGcLfYoUz@{@DR`@e@JOFSBU@eADu@?cB@e@Fg@N{@`@}AP}ATu@NSz@_A`@o@NQPMbAc@`@GRBRF`CdAPFR@v@IVBzCt@f@Hj@DvA@VEVITQ~CsC|BzDP`@vKeF|B_ApBeArF}Bh@wADLb@n@JDJ?MBQCAFBJXTl@l@NZl@PVJXRVFBBl@|AD`@CbAG`@[~@W\\GVUNQVYTaAl@k@f@[Lc@j@Ob@I@IJEPAZPn@AJKBCCIo@GGI?QDWNj@hBnAvLvBvB{@jCCfSc@vMjCzTzExCANUZ?TFA@BCH@`@DEGVgB`Ca@`@O?MFO@WJ[j@e@b@ERKRGBOBKJIL?PUVIFG?ONIB[n@ONqAt@_@f@Cv@MZE^FjAHr@Wp@ALDNFHb@RLLFL?RATOl@]d@[VIVCXH`@CN@FNHJNHRb@t@LF^KF?DD@FG@?BXTDL?p@XHDFLRNb@H^FF`@|@b@j@LLJ@Nf@PN@VDj@HV?JALMTEdAEL@j@Ev@@NBFHDJZ?NDVPRPLT\\b@~@@PRRLTBJ@TNRF@JLTLZVF@FJJ?d@Nl@FNHX@XXLB`@RPBj@\\RBPRB@FIJ@PLDVL?DEC^jAhRsO`EeA`@g@Ve@Z{EpEoDxAcA\\SDe@AUGqFuDYO]Ke@I{@CSEeGiDSEE{CsIn@sAVoBp@_A`@y@T[DqBG[Bk@Pm@ZaBlAYTUZu@nAUXWRi@T[F]B_@AYBYHULURq@z@]l@Ib@MvAKVMLOJi@HyERUAaAMS@c@HaJlCs@kKU}KA_FmAm~@O{PU}NSgRK{G'
S'B??@@@???@??????????@????@??@??????????@???@?@????A?????????????????@????@?????????????@??????@?@@??@@@?????????@??????????????????????@????????????@?????@????????????????????????????@??????????@?????????????@?????????????????????????@?A?@?????@?????????@@@????????@?????@???????@??????@????@?A???????B'
tp45
sS'Claremont/Armistead'
p46
(S'yo|nFdhirMEhCI~@y@vEK|@Ev@FxTDvDqJHuRDi@w@GY?[Be@H]L]bAeBvA{B^_APy@Bg@CiD]cQKaNGwAIcA]mBoD{Le@yAeAiCgBiDkBcEmA_CeB}CaCyDNQJg@d@{ABc@l@}A`@iABM@UN[R_AHOLa@^uC@s@Jy@@]HWAe@Jg@FcAAo@E[LoAFMRQl@SP?TJX?qAgCcGkMcV_b@c@[i@kAqAy@Q?yHqFi@m@uFqE{E_DwLsIcBcBwGgE{@M{ByTxaCBdA`Bj@bArDzFpClFx@dAXVL\\xFzJr@rAp@|Aj@vAl@lBbD`Jn@zBxA~GxKpj@d@vBl@~BXnAXdAbC`K~AnIe@JwQrX{EbGSnAsNrS{@bBmJlN'
S'B??????@?@????@?????@????@???@????@???????????@??????????@?????@????@?????????@A@????????A????@???????@??????B'
tp47
sS'Forest Pk/Walbrook'
p48
(S'_u_oFh~_sMHa@uJuDxAsHGA`@mCrLyl@RDfPtG_BbI`CbAdJWbs@_BLxBD`CFrGX|U`@Af@]LYx@k@rAc@~A[|@IlB?zALrATFOn@gAx@{@Xq@FYBYOoCQ_BAg@?y@DU^iAJOv@u@d@k@^o@FYA][oASiAIo@Sq@PDz@Bb@Ax@O~HgB\\C`@?z@Hl@R`@RxB`BAJKFYL]@YT[Zu@`Au@l@i@n@}@bCALOZE\\@BAHIZBRSf@gAlDEXIPEZIHC\\I^KLINGBMLc@X]Z_@d@u@v@k@v@GRYj@YlAUb@Uv@Yn@Gh@@rArAbGJhBC@EG?f@FVPjCJRC^Fh@Nz@~@fC?v@@d@AJIH@PGh@oAlAa@TSTa@T{@p@w@d@y@ZYPy@^YPYNQB_@ZOBuA`AsApA{@p@SFu@\\SBIBgABUC]Mc@m@c@WYa@c@Ws@s@OGYCa@MYDaAXe@BaB`@QJi@d@o@d@a@b@c@v@UZK^S`@Y|@{@nDOdAAXWnAEtAAFINE^DdA?d@C`AEX@|@Cx@F|AEXIVe@r@ULw@E_@@]GY@{AIMKWEQ@QCY@_@RUJONIXq@tD_@~@ATa@t@CJWVOf@AHGnAF|@V`ARd@n@z@ZPJBP?f@PV?JB~@B`@HP?VF`ALZRZX@`@RdAFp@?tC]bA[d@c@b@SLQFa@CGHGAGGMDINEBo@FUNWCWK{@JSHMF{@dAWL[VY\\}@}BgDmJ_AmCW_AaL_d@cGaZk@aCqHc_@Km@cBaIlCsA'
S'B?@???@?@@@?@???@?????@???@??@???????@?????@????@??????@???A????????@???????????????@??????????????@???????????????????@??????????????????@????@???????@???????@????????@????????????@?????????????@?????????@????@????????????@???@???@?????????????@????A??????@??@B'
tp49
sS'Hamilton'
p50
(S'ayeoFhugrM_VsReSoPhAmEbLwb@jOkl@Jq@By@B{CT{CzH}d@tD?xNdQpFnGlCxC`CvC|^zb@x@jA|BvDtAtBrFbJ~AbChBzCrHlL~OvWuAf@uF|B}@d@g@\\wC|BiAt@yDtCeKjI_VjR}ClCeAnAm@|@g@~@iC`FsArAq@m@mJmHuE}DgSsP'
S'B?@??@????@A????@???????A???@????@?????@???B'
tp51
sS'Cedonia/Frankford'
p52
(S'sv`oFp{brMz@LvGfEbBbBvLrIzE~CtFpEh@l@xHpFP?pAx@h@jAb@ZbV~a@bGjMpAfCY?UKQ?m@RSPITC`@Gd@DZ@f@E|@Mt@@d@IVA\\Kx@Ar@YzBG\\K\\INS~@OZATCLa@hAm@|ACb@e@zAMh@_@b@Wr@OLQHe@Bc@Em@LGJBf@C@AQM]GAQ@yAf@_@HoAl@y@l@e@d@QP[f@c@j@s@l@GVEHGx@Af@^xCFJDXT~@?BED@NL^@RPx@@l@GXU^IBUVYNgA\\_@DYAOG_@UGAg@L{@j@i@d@}@fAi@^IJSLs@n@]TQT]XWn@Q@E@k@f@Ir@?p@Gd@WhAILKzA?f@CNDXAdASvAIRc@r@ST{@~BIXCDCAE?SXaAnBiLaO_HmJkFeIw@aAiA{AcEoGkBcDuSq\\iCmEy@oA_PwWsHmLiB{C_BcCsFcJuAuB}BwDy@kA}^{b@aCwCmCyCqFoGyNeQ`xCDzBxT'
S'B?????????@????A?????@???????????@???????????@????????????????@?????@???????????????@??????????@?????????????@??????????@?????????A????@????????????@????A@B'
tp53
sS'Downtown/Seton Hill'
p54
(S'ebxnF|ftrMHrCDlGTtOHjCkAn@y@ZwAZeBBy@Cm@IgDq@YCs@SqC]kAGmAA_AByEZkAFaBJoADeDEkBQi@Mi@Qi@[o@e@qA}AqAgBeBwBoFiHqA{Ak@k@aBwA{AcB_BuBIQiAuAuBaDSQUKWG|AIPELKvGQbGIpEMTB`CGj@CZGbGSMuMEmBA_BOyJFk@`@y@r@iA\\kAMiOlAUn@Sb@S|@o@j@o@b@o@`@w@lBeEn@kAp@gAdAuAxB}BtB{AfAu@Dd@fBi@hGkApF}ALzF?fADz@DhCPhNLbH@~GD|DPrKA~@DrAb@tZEpC?|@'
S'B???@???@??????@??????@????@??????????????A??????????@???@???@@???@????????@????A?????????????B'
tp55
sS'Brooklyn/Curtis Bay/Hawkin'
p56
(S'gsjnFnfbrMbo@@llAd{BacAdsEecDrmDaQfh@oMqMcGoFsb@wL_D_DsNgO_]_D?wj@S{O?{w@kHgkAg@w`@rD{JbGkRd}EofF|G?'
S'B@A@@A?@@?@A??@@A?@@B'
tp57
sS'Howard Pk/W.Arlington'
p58
(S'in`oFrfasMbAiFl^nNPBP?Rt@pAlG~C|Ot@~CtKtb@lCzHoKbRcBvQtDtPerDFmFoIc@y@qCoEuAqBoCcET}Ez@cBrDwGrIkWjR{^nAkC~CcGnKwV~HwVrBiLv@|@x@h@Ef@DdB@xCAhD@dU`SCrD@nBCdLBrGnCzH|CpB}LrCIfB?'
S'B@??@?????@@@AA????@@??????@?A?@????@???@?@@?B'
tp59
sS'Harford/Echodale'
p60
(S'{yhoFr_hrM@eyDp_BB{H|d@UzCCzCCx@Kp@kOjl@cLvb@iAlEdSnPnSlPvUxRtE|DlJlHp@l@{CpCkElE_@d@]d@_@n@[n@_@lAa@jBOlAcEdc@QSKEe@ESEYAk@Me@?I@c@^{@f@a@BSCc@Oi@KcCK]Ic@Eg@JGFODAEC?@BG@?FMLo@~@w@MaEc@eCMiCGkE@aPv@{CT_Ej@mDt@i@F}@Bm@AmAQo@U}@c@y@o@cCwBgA}@iCsC{HeI@qaA'
S'BAA????@??@?????@??????@??A??????@?????????@?????????@????@?????@???@????@B'
tp61
sS'Dickeyville/Franklintown'
p62
(S'sp~nFp|csMxA~D|@|BX]ZWVMz@eALGRIz@KVJVBTOn@GDCHOLEFFF@FI`@BPGRMb@c@Ze@Rk@J]CS@{BGq@SeAAa@[Y[SaAMWGQ?a@I_ACKCW?g@QQ?KC[Qo@{@Se@WaAG}@Bq@Dg@Ng@VWBK`@u@@U^_Ap@uDHYNOTK^SXAPBPAVDLJzAHXA\\F^Av@DTMd@s@HWDYG}ABy@A}@DYBaA?e@EeAD_@HO@GDuAVoA@YNeAz@oDX}@Ra@J_@`A}AXYn@e@^]ZS`Ba@d@C`AYXE`@LXBNFr@r@b@VX`@b@Vb@l@\\LTBfACHCRCt@]RGz@q@d@a@h@k@xAeANC^[PCXOXQx@_@XQx@[v@e@z@q@`@URU`@UnAmAFi@AQHI@KAe@?w@R`@JDj@LXTVZHNFZ?b@KX_@\\WLAb@Dv@Jj@VXFN`@TDJNf@@^AHRN@FABYSYh@UTUn@Cj@AfAFX?TXr@R`@PRJXRt@BX?~AMzA}@pFA`CJXZb@d@Nl@JHLH\\VFX@b@Ij@_@`@]TIh@Yn@U^An@DXNf@j@Nh@NR?VIb@U|A?v@Fx@?v@|@lANTLb@P^VTBd@CR@b@Cv@Mx@ILYRG?KEG?WTKd@En@M\\BXLZFxAFT@b@G\\@JCNLPr@`@`@h@TFTTJVB\\?PFd@Tf@BRLZ\\v@Hd@N`@NJRBn@]LCJ?d@ZLBT\\P~@D|BQx@EdB^rAD@Xz@@PKj@o@bA]XUJKJO@MLc@HSH_@D{@?QEMIUWa@o@aBeBCMUa@_AMINYHY^]v@o@hBEj@I^?P_@dB?JKl@I\\Ap@B`DNRxAvALZNn@?t@Kb@?LEVEFAP]bBqoBDuDuPbBwQnKcR'
S'B?@????@?????????????????@?????@????????????@?????@????????@?????????????@????????????@???????@???????@???????@????@??????????????????@??????@???A????????@?????????@?????@????????@???@??????@???????@????@?????@?????@????????????@???????@??????????????@???????@??????@??????????@???????@???@????????@?@???@??????A@@@B'
tp63
sS'Greenmount East'
p64
(S'wb}nFhsorMOyG?eAIeD_A{k@ni@qApA`|@vTm@?xBLzJF`DHjB?hAfAzu@~M[AaJUoHE_DrEw@HvHFpB?|BJz@JVSf@APBtADl@ITP`A?\\a^fAw@@mBCs@IgBKqAAIsGOqIaLfBsEp@uH~@kGb@kB?SeF{As|@'
S'B???@A@@?????@@??@@???????????A?????@?@????@?B'
tp65
sS'North Balto./Guilford/Home'
p66
(S'}yhoF~pvrM?_vClHHxPDhCDtMHzADbD@fYGzC@|UK~OUpNQfGCtOORI|DCJBHHdGBfKCzFGfTCdSIxLCCnBCp@Iz@e@lCs@rC_BdEcAlB{@rAAFKGD`B?f@NrAzErFiEfIg@B}AvCoDdGm@jA_G|J{DlH[?o@IO?c@P_Ab@i@^g@f@w@~@k@f@o@r@y@t@gAx@G@eAIgAFoBC_BB[DSPaEJe@Go@Yi@OU?kARY@OASIUCWCY@i@Pu@j@[Zc@ZMHq@T]RQDk@B_AXo@\\WHI?OMMCSBYASHWDOPe@hAMLI?QEg@@a@Vs@t@G@KCYCS@QL]\\ULYD[?QDc@Vm@?c@PW?y@LKDi@ZIEKWKCWRUb@KJwAb@K?YJK@a@MU?GBO@m@A}@l@QFYDc@Vc@H]P{Bb@m@FQ?YCy@O}BDI@WLURQFOJg@A_AZSEMNSHMAKCSa@K@KTG@k@KSQ[@i@EsB^e@PWLOLQ?e@D[KwAMyAWWWy@_@GI?a@GGICO@UJW?{@h@Ul@SBYIQKsC]g@QY?_@S[GKKGCe@m@MKIE[?][CCK@SUUk@SUOYKMOGOQK@mA^Y?SKWCOQe@Wo@AI@oAi@BRJLv@p@RXNZN`ABb@G`Ae@fEIbA?fDgHM}IIK|FI^a@hAs@jCOZUc@MQe@Wq@S_AQgAQs@G[Bk@NsCdA'
S'BA??????????????????????A????@????@??@@??????@????@??????@??????????????????@?????????????????????????????????@??????????????????????????????????????????????@?????????@?????@????????@?????@??????@???????????????@?????????@?????@????@?@????@??????@??B'
tp67
sS'Lauraville'
p68
(S'cqdoFvwhrMrAsAhCaFf@_Al@}@dAoA|CmC~UkRdKkIxDuChAu@vC}Bf@]|@e@tF}BtAg@x@nAhClEnEjHdMdSjBbDbEnGhAzAv@`AjFdI~GlJhL`OQ\\WNi@ReAN]HKJCLHl@Pr@HJZp@V|@X`@HXJFFLLp@?`@E`@y@lAMDSLQEIFSFWCWQCGSUu@oA]c@UKSk@[Qe@Ia@Ds@Pg@\\MBy@b@[VGL?\\CXa@fAGJA`@O`@EXa@jAUf@Uz@g@nA]pAAf@EFMBa@|AKBEDE`@KZa@v@M`@g@|@g@n@[PKBg@@oBIK[QMYIOFU@g@n@?f@DL?TYrB@LGV@lABVZn@b@\\BFGb@HV?FQ\\IX[Vk@v@EGj@w@Tk@LQDWBa@AKIM]QEBGHKl@SRmAbBQLQRQFYRK@MLUHICGJ]JS?Qf@EHKDGBKAMIEOGBILC~@EJKJATITSL@p@En@W@Du@Cs@BMHKLCFg@NQ@_AT]PGL?HBBRF@DCJ][S_Ba@Q?c@Wq@KY?MA_@@MAS@UEIIE@GGKAMDO?q@Q_@Ai@MIIESc@g@IYQWOw@CBUq@Ik@KWAKGIQAE@EJOFENC?CAMJQXER?NEHABAEg@x@DBALKRETILALIL?H]r@SRi@ZCAG?o@RYBCJKBDBCDKCIJ_@DQDIFC?CJGNEA?EE?GH@FULK^[ZO~@@p@CLARFV@b@D\\?VZx@HjAAl@EH@FGDITm@F_@A_@IYCYK_@AqB[E@KMIDMA[M[EmAg@CA@Eb@JVD?CICCEc@MO?EIQ?EBQKIWc@Ys@FYAi@JeD`AQ?YDM?KEYBGGMLSDM?g@T_@EG@q@SIIQIu@Eo@Rs@ZEHE`@K`@MXMJOHG?MCKDQ?_@O[[KOOMCIMOGQAWMYKc@C][wAOKYs@AMQO]IMGYc@I[CQBq@D]V{@\\q@`@[`@g@BI?q@Ee@DOCIMOIUEEGE[GQCWJEBKAUDMCGB[IUDKFIGKHK?KDMJG?EBEAUJOAs@`@YVYNYHOAWQS_@ESEc@EMCw@BeAK}CBiBFW?[HUA[JYAWMSsBsBu@aAS_@WIQKIMWUbEec@NmA`@kB^mAZo@^o@\\e@^e@jEmEzCqC'
S'B?????@????@???A??????????@??????@???????????A??????@????????@?????@???????????????????????@??????????@???????????????@?@????????@??????@????????????????@????????@????????@???????@???????????????????@????????????@???????????????????????@????????????????????????@??????????????@????????????????????????????@?????????????@?????@???????????A???????????????????@???????????@????????????@?????????????????@?????????????@???????@??@??????B'
tp69
sS'Greater Govans'
p70
(S'yreoFvzqrMvCgl@tBoZPFnAL|y@hH|@@b@C`Pn@zDVlCKhASl@Qb@SzAy@pBwA`A}@~@cAxEkGh@m@zBwCbAaAn@a@p@YJNRb@CZ?x@@hBAxNC`C@nYBbA{@\\ZtFTrF?vAsA?BfKi`@H{FFgKBeGCIIKC}DBSHuONgGBqNP_PTeD@'
S'B?@??@????@????@????????A???????????@@A????????????B'
tp71
sS'Clifton-Berea'
p72
(S'gr|nFntjrM`HGhQItAEvAOxHE?tr@Vb^AzAUfAeCvFwx@nB~@zk@HdD?dAVlMuEeAg@OWO_@[gDmDyDwDkAoAc@k@gGoGRo@x@wG`A_HH[FKFCt@iIzEka@z@oK?yCfArABeCIyk@AaDGgAtREpJI'
S'B????@??@?@@???A??@?????@?????????@@???@?B'
tp73
sS'Greater Mondawmin'
p74
(S'uv_oFzd{rMvEiD~CwB~A_AfD{BnGmEzAaAvDoCpD{BTWr@c@ZYfB{BJEVSfA}A|BoCv@gAxEgGn@s@h@g@zBqCnCqDLSGGx@kAzJcMxDwE^bWRdJG?P|IfA|}@WBsDSwGS_TNb@zB^lCTjB~Ck@nBOdAGtHQTtSJ`Gt@fm@AxDcs@~AeJVaCcA~AcIgPuGSEbFiWd@wBZoAhB{JWBg^cBj@sCfCkNz@iE~A}KWMdAs@'
S'B??????????@???????????????A????@???@??@???@???A?@@@?@???@?@?????B'
tp75
sS'Midway/Coldstream'
p76
(S'gq~nFbxqrM?wTvBgYJs@yO_PcMsMcKeKi@i@]m@QKQGSCiAd@wAp@m@^[Vc@`@a@h@OHSDaAA@ySAeLB{Ad@DbDH?uFAOMm@D_@Bk@?wKDs@H_@L[Xi@f@`@zCxB~C`CzHpGd@j@|C|FdCbEl@z@xA~AhBdBvE~ExExEdDrDb@XfApAdHlHhArA~E~EfDlDv@j@hBd@rCn@rA~v@RdFeJBaABsXIcJ@'
S'B??@?????@??????????@??@?@?????????A???@???@??????????@??@?@???B'
tp77
sS'Midtown'
p78
(S'iu{nFjcrrMpA@fBJr@HlBBlBC~d@{ArE]dC[LhO]jAs@hAa@x@Gj@NxJ@~ADlBLtMcGR[Fk@BaCFUCqELcGHwGPMJQD}AHVFTJRPtB`DhAtAHPQTa@v@Of@}B~CaDvDwClEUTUc@YJ]\\i@n@wR~Vy@jAaQzT[f@Od@q@lA@g@QwHe@{YA}BMwFGeEGk@KkF?cFGyBKgIC{C@}CKoEUsSe@{Z?gAD[jB?jGc@tH_ArEq@`LgBNpIHrG'
S'B???????@@???@???A??????????@?????@??@?????????????A?????????????????@????@?B'
tp79
sS'Orangeville/E. Highlandtow'
p80
(S'uf{nFblerM}Gi]yA_Ho@{BcDaJm@mBk@wAq@}As@sAyF{JM]YWy@eAqCmFsD{Fk@cAeAaBp}CDDbCn@fAlBxDzK`Ub@tAB^DjB|AbiAF|FEb@@fBf@zVM|@IPMLOH]HgCFBFhFtBDvEG?HlEmCR?jCrC?LvIDzE{Dv@?jCd@Ro`@`AgBHgLXiPf@yA?p@hh@wZz@_GR}EJPjPm@DeDBqADeCBk@@k@HeMFwANuADiQHaHFEwDGyTDw@J}@x@wEH_ADiClJmNz@cBrNsSRoAzEcGvQsXd@K_BoIcCaKYeAYoAm@_Cw@sDiBkJ'
S'B????@??????????AA?????@?????@???@?@?@??@@@@?A@?@????@@??@@??????????A??????@??????@??????B'
tp81
sS'Greater Charles Vill./Barc'
p82
(S'gj_oF|wqrMnNFrSCrXH`ACdJCEZ?fAd@zZTrSJnE?jBc@AiDL_CFiAFkA?kBBaFPkf@pA{IXkCDi@@[CeAb@_@_ARlBa@~@_@tA}@jC[j@UX]Z_CdBKP?hBbCxGcBlAg@{@[IO?ODMLM@GAWAWIg@BaA?i@MQAi@KQ?YJK?UTMFYDe@L]FSFc@BYH[@GDQ?GBE?KDGFK?IDEACDy@j@EHM@IFO?MJWGQDI?KGE@CAC?CEO?CCIAGIIC?CBA?COKGSIy@KWCa@OeAQ]UMY[YOg@Cc@Qw@a@y@_@YYgA_B[GK@u@l@]\\]Na@\\MTQBMNe@Gk@FoB?e@K[@k@Oc@AzDmH~F}Jl@kAnDeG|AwCf@ChEgI{EsFOsA?g@EaBJF@Gz@sAbAmB~AeEr@sCd@mCH{@Bq@BoBj]GtOD'
S'B????@?????A????????????@@???@????@?@@??????????????@?????????????????????????????@???????????????????@????????@????????@??????A??????@@??@????@????@?B'
tp83
sS'Westport/Mt Winans/Lakelan'
p84
(S'cwtnFbbvrMj@aE~@wHb@oCNyATq@r@gEf@eDR?DERk@Lg@JAPNDXH?BB?JBD?NHAFHAPKBALFD@NJPLHBNH@PJD?NJ?DPFDDJTD@PTND?FVJR?THh@IVDVNTAHLTJTP?_Vz^g@g@vB{@~CzJr]vBvGjBtFSpAIXDBM^i@z@[Zw@j@^FxPrElN}@fOoAvQ{JfOwLfJgJbBgErDo_@bB{h@RcBbGnFnMpMkqB|dG_AuAcG_S_Ic[sIkMgEcGoI}NwIuMsDcG{ToZkCgEOQ\\gEj@wFrAuL\\qC'
S'B??????????@?????????????????????????????@?????????@@@?@??@??????@?@?@?@?@??@?AA??@???????@???B'
tp85
sS'Madison/East End'
p86
(S'yk{nFvrmrMdCwFTgAAwA?wCScS?ay@jCAj@Ij@AdCCpAEdDCl@EhLKDlC?jDL|FX`S@lCXtPBjCh@d]kEL?FwADgCD?GqAFuIR_ITcDF'
S'B?@???@???????A???????@????????B'
tp87
sS'Southeastern'
p88
(S'_fwnF~jcrMc@uA_@w@cFaKu@cBaBcDmByDo@gAEcC|{KLe}EnfFcGjRsDzJcQbLkMbBw`@fEc[bLgTs]oAkCoCiDc@a@WQwC@AJUEkEPC{@YmXWiNuDgEoF_D_D{@g@S?kCzDw@E{EMwIsC??kClCSImEF?EwEiFuBCGfCG\\INILMHQL}@g@{VAgBDc@G}F}AciAIkC'
S'B???????@A@?@@?@A??@?????@??@???@@@?@@@@??@?@?@???@?????B'
tp89
sS'South Baltimore'
p90
(S'qyunF~_trMHw@hCgKbBI|DKOsN`LYa@sZmAMY@wHp@MwIGwAGaIOiIAwAG{BB_@b@oBnKqb@oGyCDMaGsC{EkCSf@g@oAoA{@oKgE_Do_@jCsSrb@gw@b[cLv`@gEjMcBbQcLf@v`@jHfkA?zw@RzO?nx@w`@~nA{^f@?~UUQUKIMU@WOWEi@HUIS?UICIMEQUGCISEEQG?EOKE?QKG?EQMIKQAOGE@MJC@QGII@?OESKAEYQOK@Mf@Sj@EDS?\\wCHiANcCm@h@g@Tg@Ne@De@@YAc@y@k@q@m@m@o@i@aAo@gBq@kSiHoE_B'
S'B?@?@@@@??@?????@??@???????@@A@@?@A@@??A@@@?????????????????????@??????????????@????@??@?????@????@??B'
tp91
sS'Penn North/Reservoir Hill'
p92
(S'ij~nF|vurMhCw@h@UlBq@|Ao@rAo@yDpGJjA@c@J]V_@v@m@dD{CjBiBjCaCdEaElAw@EoBdBcBbBaCv@sAdCqF@xBJjFFj@FdELvF@|Bd@zYPvHAf@B`BL~EFFB~Bt@pe@yDvE{JbMy@jAFFMRoCpD{BpCi@f@o@r@yEfGw@fA}BnCgA|AWRKDgBzB[Xs@b@UVqDzBwDnC{A`AoGlEgDzB_B~@_DvBwEhDIY{BaCUQs@a@cBw@eM_E[U_@a@_CmDe@aAo@mCoAuELq@bGkW{@sI_D_Dg@cBvB{@vB?SkCScBz@cB`LmIx@mDj@k@\\g@Zk@j@}ALq@Jq@z@kK`@uBLe@p@oBXq@zDmHp@iAT[`AgAj@e@rA}@~CcBpAw@zFaDnCsAbDu@f@IdCi@'
S'B????@?@????????@????@?????????????A???????????????@??????????A???@??@??@?@?@@?@?@??@@????@????@????@?????@???B'
tp93
sS'The Waverlies'
p94
(S'}h`oFn~nrM`A@RENI`@i@b@a@ZWl@_@vAq@hAe@RBPFPJ\\l@h@h@bKdKbMrMxO~OKr@wBfY?vToH@mTKwIAek@JcGBCgKrA??wAUsF[uFz@]CcAAoYBaC@yNAiB?y@B[_@s@\\QcA}AxBv@f@BrAOdCIvC@nCCzM@r@@'
S'B??????????@?????@??A????A@@???@??????@??@???????B'
tp95
sS'Southern Park Heights'
p96
(S'_u`oFlnzrMrClE^`@ZTdM~DbBv@r@`@TPzB`CHXeAr@VL_B|K{@hEgCjNk@rCqYlFaH|@_JvPi@jAaCfK_GzLsDzEwGjM_DzG_As@oBmAs@g@a@UgBo@t@sDD]dBiJ}GwBsGmBsBk@]QQOgG_N}B{EQc\\?yCCiHj@kNnBXb@@^Eb@KbA[n@Yn@c@j@e@dFyGj@]f@Q`@IZB|@P`@Rh@`@tAtA\\R`@Pt@NBd@Xa@hA_@VSjDa@j@MRKPM`DmDj@]b@ObAQjJg@\\EvAg@^Ih@Gh@?fCF`@A\\EZMXQ^]|@m@tMqG'
S'B??@?@???@?????@?@??????A????@??@????@?@???A?????@????@?????????@?????@???@?????????@????B'
tp97
sS'Pimlico/Arlington/Hilltop'
p98
(S'useoFbo{rMXSjA`CTXXTZNr@Rd@@nBYrAWfAQtBQdF]l@CxCW~Ca@vHg@|@DpEx@k@jNBhH?xCPb\\|BzEfG~MPN\\PrBj@rGlB|GvBeBhJE\\oBzJW`B@z@`BvIFf@DjAO`BiAhEo@pA{QvYgDdFoGhKmCuDyCsEi@cAaMwXg@cAWYmJwTg@mAm@eBkBgGoB{FeFkP_BoFB[^Cf@kG[D_@@qCiZMkAM]^UpF_FhAsAv@kA|@uBReA^wCB_A?_AC}@Cu@MgAUiAoAiE'
S'B??????@????????@?@???@?@????A???@???@?@???A??????@?????@??@????@????@????@???B'
tp99
sS'Loch Raven'
p100
(S'}yhoF`morM?{iDzHdIhCrCfA|@bCvBx@n@|@b@n@TlAPl@@^?fAKlDu@~Dk@zCU`Pw@jEAhCFdCL`Eb@v@Ln@_ALM?GFAACB?@DNEFGb@Kf@D\\HbCJh@Jb@N\\BVCz@g@b@_@HAl@@b@JX@RDd@DJDPRQ|A_EvL`AlBf@~F@r@A~AC`@S|AOp@{BnHm@zBQrACh@A|AXje@HdERfB\\tAj@zAlAfCVv@d@nBJ|@JfBN|HWCMBYMQCINCA@IIFqA\\QJOBi@TSPO\\YZOBACKTACDIE@ACOPa@Ng@?GLKD}AdBy@x@y@p@qCtBmAn@eA^sAXs@Dc@Hm@DIBa@?WKEEO?qA`@M?WHEEUC]?GEC@AFEG@IEGO?OEo@J]?UA]M]G_@@q@OW]CAe@Nq@b@m@N_@?WFSNUd@ONKBEGQAs@XADMJI?GLCCGBKRMJEPGDmAVoCr@]PWDSPK@KAOIIIq@]C?Sz@INWPq@Vc@TSFGD_@J[?e@CCCIQMGUEc@LUNC?AEn@[EISMU[SO]a@ICg@s@]SUEECQo@Ym@Sm@SW_@OWS{@aBM_@IISIU?MCGGEIOKUFe@BSEc@SS~@'
S'BA???@???@??????@????@?????????@???????????????A??@???@???????@?@?????@??A???????????@????????????????????@???????????@???????????????????@??????????????????????????@?????????????@????????@????????????????????@??????????B'
tp101
sS'Sandtown-Winchester/Harlem'
p102
(S'yqynFnyxrMHzF@fCRfQq]r@DlDi@CgEg@gEcBsD_DcGyE?lAg@~Cg@rDuIPAIq[t@IwGQ}IF?SeJ_@cWj@w@~PkTbBu@^YpCoA`ZwMvHoDvB_AhCcA`Bw@pAu@fLkFtD}AnApy@^pY'
S'B??@@?@?@?@??@??A?????@@??????????A?B'
tp103
sS'Unassigned--Jail'
p104
(S'mqznFdfqrMD~CTnH@`J_NZ]iU~McC'
S'B??@@@B'
tp105
sS'Greater Roland Pk/Poplar'
p106
(S'}yhoF~syrM?_bBrCeAj@OZCr@FfAP~@Pp@Rd@VLPTb@N[r@kC`@iAH_@J}F|IHfHL?gDHcAd@gEFaACc@OaAO[SYw@q@KMCSnAh@HAn@@d@VNPVBRJX?lA_@JANPNFJLNXRTTj@RTJABB\\ZZ?HDLJd@l@FBJJZF^RX?f@PrC\\PJXHRCTm@z@i@V?TKNAHBFF?`@FHx@^VVxAVvALZJd@EP?NMVMd@QrB_@h@DZARPj@JFAJUJAR`@NDL?NILORD~@[f@@NKPGTSVMHA|BEx@NXBP?l@GzBc@\\Qb@Ib@WXEPG|@m@l@@NAFCT?`@LJAXKJ?vAc@JKTc@VSJBJVHDh@[JEx@MV?b@Ql@?b@WPEZ?XETM\\]PMRAXBJBFAr@u@`@Wf@APDH?LMd@iANQVERIX@RCLBNLH?VIn@]~@Yj@CPE\\Sp@ULIb@[Z[t@k@h@QXAVBTBRHN@XAjAST?h@Nn@Xd@F`EKRQZE~ACnBBfAGhAHf@[b@_@x@u@n@s@j@g@v@_Af@g@h@_@~@c@b@QN?n@HZ?uA`CyBjE^JKV[j@w@hA}EjF]d@[j@M\\Kd@Gf@GrA?j@F`BHtAJ|B?nBKhAI^Yp@g@l@SPeAn@}@|@e@r@kBtDs@hAUXu@n@wAv@}@Xw@NuAR}@Hu@NVr@bArDrAhFJl@NjBA`BOhBMn@a@tAa@J]~@a@t@gDjFi@p@o@~Ag@bBMx@Ix@MtAEtA@dC\\dIqEc@aSwBoAAw@B{@LwDfAcKfD}Ah@mAf@sA|@o@v@}@z@mB`Bw@f@eAb@kIdAmFd@}AF}A@eACiAuH_@WWaCQwDK_AY}AeD|@cSxEwE`@s@XkAr@kATiBRq@LiMlDsDz@yAX'
S'B@??@??????@????@?@????@?????A?????????@???????????????@??????@?????@????????@?????@?????????@??????????????????????????????????????????????@?????????????????????????????????@?????????????????@???????@????A?????????@??????????@????????@?????@?????@?????????@?????A???@????@?????@???@??@???@??????????B'
tp107
sS'Glen-Falstaff'
p108
(S'kadoFdpasMnGiKfDeFzQwYn@qAhAiENaBEkAGg@sAaHMu@Aa@?YVaBx@gEfBn@`@Tr@f@nBlA~@r@g@fH{EzTwBvL_IvVoKvV_DbGoAjCkRz^sIjWsDvG{@bBU|EnCbEtApBpCnEb@x@lFnIwmBBORKBIAUUaZ@xVwZdm@ww@h@gA~Ni]jJmVj@uA\\s@_b@}`AgCgG]q@g@kAq@kAQSEDqDuEa@o@qAyC|AmAzG}F\\S\\C^FrA`@tBd@RDX?|B]bIuAv@SlGq@^AZEg@jG_@BCZ~AnFdFjPnBzFjBfGl@dBtKdWVXf@bA`MvXh@bAxCrElCtD'
S'B???@?@????@??A????@??@?@?????@@????A?????A?@????A???@?????@?A??????@?????@??@????@??????B'
tp109
sS'Beechfield/Ten Hills/West'
p110
(S'_j{nF|sesM\\cB@QDGDW?MJc@?u@Oo@M[yAwAOSCaD@q@H]Jm@?K^eB?QH_@Dk@n@iB\\w@X_@XIHO~@LT`@BL`BdBf@v@\\X\\Fn@AXCXKb@ILMNAJKTK^[j@_ALo@CUWu@EA_@sADeBPy@E}BQ_AU]MCe@[K?MBo@\\SCOKOa@Ie@]w@M[CSUg@Ge@?QC]KWUUUGa@i@s@a@MQBOAKF]Ac@GUGyAM[CYL]Do@Je@VUF?JDF?XSHMLy@Bw@Ac@BSCe@WUQ_@Mc@OU}@mA?w@Gy@?w@T}AHc@@OEMKMRe@nAcBjCbBvI}L\\FLHvDbEtFwJhBpBTZbA_B|A[|A_CRCGmA?]d@cA|@aBJ_@tBIZ?X`T@~EN~IJ~Bl@hI`JmCb@IRA`ALT@xESh@INKLMJWLwAHc@\\m@p@{@TSTMXIXC^@\\CZGh@UVSTYt@oAT[XU`BmAl@[j@QZCpBFZEx@U~@a@nBq@rAWrIo@DzCRDdGhDRDz@Bd@H\\JXNpFtDTFd@@REbA]nDyAzEqEd@[f@WdAa@rOaE@TsDbe@QhCo^jgAq{CD'
S'B??????@???@?@????????@???@?????@??????????@???????@???????@??????????????@???????@????????????@?????@???????@?@@A??@@?@???@????@?@????@?@????@??????@???????@?????@????????@@@?????????@?????@?A??@AB'
tp111
sS'Jonestown/Oldtown'
p112
(S'giynF~zorMOk@WcCaBqH_@eCmBgKGkA@mApAEv@@hAArEQ|@A?DhBEhPa@vBIhEKnEIl@r_@FtBfESrJ]NI@EHAf@f@bBnFV@vBf@NPbGnK{@f@{ErDkK~@OhACACNG?GDEAEDG?k@H?@Y@a@HiCZDl@mCJAk@u@NcAXcFjAE_BqF|AiGjAgBh@Ee@}DpCyB|BeAtAq@fAo@jAmBdEa@v@c@n@k@n@}@n@c@Ro@RmATeCZsE\\sGT?]QaAHUEm@CuA@QRg@KWK{@?}BGqBIwH_LlBsGlAi@q_@?iAIkBGaDM{J?yBpTg@RjNfRm@jFYtGE'
S'B??????@??????????@?@????@???@?A?@@?????????????@????@@???@?????????@?????A???????????@?@?????@@@??B'
tp113
s.