(lp1
ccopy_reg
_reconstructor
p2
(cforeclosure
Foreclosure
p3
c__builtin__
object
p4
NtRp5
(dp6
S'city'
p7
S'Baltimore'
p8
sS'zip'
p9
S'21210'
p10
sS'lon'
p11
NsS'n'
S'5203'
p12
sS'state'
p13
S'MD'
p14
sS'street'
p15
S'Falls Road Unit 16'
p16
sS'lat'
p17
NsS'dt'
p18
cdatetime
datetime
p19
(S'\x07\xd8\x0c\x03\x00\x00\x00\x00\x00\x00'
tRp20
sS'amt'
p21
F145314.07999999999
sS'hood'
p22
S'Cross Keys'
p23
sbag2
(g3
g4
NtRp24
(dp25
g7
S'Baltimore'
p26
sg9
S'21224'
p27
sg11
NsS'n'
S'517'
p28
sg13
S'MD'
p29
sg15
S'S LUZERNE AVE'
p30
sg17
Nsg18
g19
(S'\x07\xd9\x01\x1a\x00\x00\x00\x00\x00\x00'
tRp31
sg21
F396294
sg22
S'Canton'
p32
sba.