(lp1
(lp2
I95
aI59
aI246
aI51
aI72
aI133
aI24
aI134
aI14
aa(lp3
I348
aI126
aI72
aa(lp4
I132
aI222
aa(lp5
I2558
aI66
aI194
aI383
aI99
aI777
aI249
aI185
aI36
aI47
aI136
aI178
aI205
aI346
aI192
aI244
aI205
aI198
aI355
aI217
aI1028
aI149
aI224
aI257
aI417
aI174
aI164
aI411
aI651
aI195
aI162
aI215
aI198
aI116
aI117
aa(lp6
I315
aI214
aI224
aI350
aI170
aa(lp7
I206
aI227
aI353
aI222
aI184
aI570
aI175
aI614
aI561
aI1811
aI310
aI131
aI175
aI138
aI309
aI814
aI197
aI129
aI163
aI626
aI73
aI102
aI33
aI708
aI619
aI222
aI209
aI287
aI244
aI102
aI66
aI91
aI249
aI596
aI454
aI79
aI60
aI93
aI363
aI116
aI50
aI246
aI674
aI448
aI37
aI190
aI116
aI656
aI67
aI32
aI20
aI19
aI136
aI195
aI16
aI69
aI450
aI155
aI116
aI1641
aI139
aI224
aI142
aI84
aI55
aI43
aI73
aI337
aI126
aI16
aI91
aI37
aI927
aI542
aI54
aI74
aI201
aI424
aI794
aI80
aI269
aI1128
aI47
aI32
aI47
aI344
aI258
aI227
aI88
aI202
aI73
aI48
aI122
aI68
aI231
aI52
aI63
aI170
aI153
aI290
aI111
aI258
aI165
aI382
aI683
aI1047
aI114
aI98
aI46
aI69
aI155
aI179
aI106
aI159
aI65
aI66
aI65
aI155
aI44
aI33
aI162
aI30
aI63
aI27
aI53
aI34
aI84
aI91
aI20
aI148
aI36
aI126
aI358
aI50
aI112
aI67
aa(lp8
I139
aa(lp9
I307
aI96
aI73
aI35
aI67
aI28
aI124
aI140
aI65
aI111
aI309
aI860
aI1476
aI182
aI168
aI1552
aI472
aI297
aI106
aI110
aI276
aI428
aI800
aI563
aI483
aI46
aI597
aI601
aI196
aI87
aI309
aI790
aI550
aI1662
aI195
aI51
aa(lp10
I57
aI130
aI115
aI513
aI87
aI29
aI47
aI36
aI25
aI337
aI129
aI164
aI102
aI94
aI76
aI204
aI56
aI138
aI179
aI338
aI236
aI246
aI1067
aa(lp11
I25
aI132
aa(lp12
I107
aa(lp13
I70
aI94
aI88
aI86
aI4083
aI11
aI32
aI207
aI253
aI20
aI59
aI296
aI182
aI171
aa(lp14
I58
aI11
aI37
aI110
aa(lp15
I196
aI848
aI139
aa(lp16
I72
aI66
aa(lp17
I165
aI26
aI48
aI129
aI66
aI52
aI51
aI24
aI78
aI176
aI27
aI61
aI273
aI444
aa(lp18
I17
aI132
aI29
aI193
aI397
aI126
aa(lp19
I112
aI281
aI102
aI90
aI127
aI74
aa(lp20
I570
aI721
aI682
aI330
aI341
aI76
aI195
aI42
aI166
aI89
aI729
aI684
aI913
aI406
aI167
aI157
aI161
aI355
aI444
aI889
aI139
aI315
aI1500
aI173
aI178
aI40
aI20
aI62
aI695
aI170
aI234
aa(lp21
I136
aI13
aI344
aI76
aI47
aI414
aI341
aI249
aI127
aI58
aI18
aI139
aI185
aI160
aI64
aI200
aI183
aI250
aI573
aI363
aa(lp22
I807
aI296
aI32
aI149
aI67
aI295
aI195
aI54
aI104
aI198
aI37
aI16
aI229
aI253
aI26
aI33
aI799
aI782
aI340
aI277
aI297
aI264
aI517
aI413
aI267
aI40
aI68
aI167
aI93
aI61
aI140
aI116
aI28
aI194
aI166
aI75
aI805
aI282
aI714
aI118
aI568
aI187
aI109
aI66
aI134
aI28
aI173
aI416
aI216
aI263
aI140
aI134
aI55
aI787
aI442
aI360
aI198
aI58
aI44
aI37
aI23
aI64
aI535
aI421
aI289
aI421
aI314
aI149
aI411
aI591
aI245
aI231
aI375
aI215
aI429
aI225
aI963
aI1458
aI1103
aI1583
aI873
aI2018
aI43
aa(lp23
I114
aI10
aI684
aI259
aI114
aI97
aI9
aI35
aI179
aI235
aI234
aI108
aI186
aI90
aI31
aI126
aI55
aI147
aI112
aI211
aI170
aI20
aI125
aI300
aI27
aI42
aI164
aI190
aI72
aI103
aI38
aI161
aI77
aI101
aI85
aI121
aa(lp24
I33
aI715
aI138
aI111
aI212
aa(lp25
I150
aI96
aI191
aI226
aI141
aI142
aI1136
aI108
aI108
aI68
aI136
aI60
aI111
aI118
aI141
aI249
aI197
aI418
aI190
aI563
aI203
aI219
aI236
aI244
aI23
aI168
aI99
aI21
aI98
aI63
aI21
aI17
aI211
aI21
aI150
aI32
aa(lp26
I50
aI416
aI185
aI332
aI164
aI139
aI502
aI193
aI673
aI1750
aI79
aI166
aI86
aI209
aI210
aI86
aI59
aI126
aI16
aI61
aa(lp27
I65
aI125
aI246
aI32
aI219
aa(lp28
I121
aI146
aI15
aI130
aa(lp29
I63
aI80
aI230
aI68
aI77
aI47
aI39
aI48
aI12
aI124
aI184
aI27
aI79
aI20
aI29
aI31
aI37
aa(lp30
I534
aI1026
aI227
aI523
aI291
aI862
aI415
aI289
aI50
aI44
aI76
aI14
aI481
aI194
aI205
aI208
aI139
aI1888
aI306
aI288
aI718
aI215
aI73
aI137
aI310
aI215
aI301
aI340
aI57
aI186
aI134
aI681
aI840
aI375
aI256
aI1849
aI111
aI208
aI487
aI62
aI123
aI394
aI140
aI378
aI139
aI255
aI215
aI2523
aI824
aI87
aI81
aa(lp31
I329
aI5141
aI91
aI58
aI22
aI75
aI232
aa(lp32
I42
aI1132
aI202
aI288
aI96
aI60
aI112
aI115
aI46
aI48
aI17
aI43
aI340
aI439
aI280
aI22
aI64
aI454
aI1628
aI59
aI62
aI31
aI43
aI31
aI184
aa(lp33
I151
aI139
aI504
aI21
aI1130
aI340
aI82
aI1103
aI748
aI837
aI283
aI113
aI248
aI139
aI118
aI732
aI644
aI863
aI427
aI262
aI368
aI89
aI285
aI26
aI200
aI494
aI48
aI31
aI77
aI75
aI319
aI166
aI137
aI113
aI192
aI157
aI159
aI434
aI67
aI86
aI225
aI604
aI440
aI878
aI969
aI1089
aI332
aI456
aI65
aI541
aI980
aI743
aI392
aI535
aI626
aI97
aI276
aI77
aI365
aI334
aI52
aI696
aI81
aI113
aa(lp34
I43
aI124
aa(lp35
I191
aI359
aI272
aI121
aI262
aI317
aI114
aI454
aa(lp36
I240
aI76
aI429
aI194
aa(lp37
I476
aI479
aI367
aI113
aa(lp38
I561
aI697
aI91
aa(lp39
I229
aI189
aI31
aI69
aI203
aa(lp40
I74
aI313
aI668
aI166
aI212
aI411
aI384
aI218
aI75
aI96
aI248
aI352
aI138
aI526
aI68
aI88
aI74
aI396
aI140
aI82
aI77
aI125
aI22
aI73
aI88
aI51
aI69
aI157
aI554
aa(lp41
I59
aI276
aI134
aI160
aI532
aa(lp42
I310
aI30
aI125
aI53
aI360
aI184
aa(lp43
I31
aI160
aI71
aI172
aI369
aa(lp44
I481
aI2304
aI629
aI196
aI1380
aI583
aI81
aI270
aI104
aI86
aI333
aI64
aI31
aI559
aI605
aI323
aI244
aI298
aI43
aI62
aI75
aI81
aI240
aI757
aI93
aI422
aI633
aa(lp45
I98
aI52
aa(lp46
I226
aI39
aI12
aI200
aI205
aI161
aI251
aI93
aI84
aI107
aI307
aI744
aI109
aI90
aI671
aI321
aI367
aI201
aa(lp47
I1337
aI221
aI101
aI145
aI94
aI72
aI39
aI90
aa(lp48
I480
aI44
aI32
aI855
aI1549
aI220
aI671
aI72
aI35
aI73
aI519
aI615
aI698
aI60
aI526
aI319
aI700
aI785
aI229
aI429
aI342
aI96
aI215
aI490
aI31
aI131
aI31
aI30
aa(lp49
I28
aI1176
aI219
aI82
aa(lp50
I106
aI54
aI56
aI66
aI66
aI77
aI30
aI41
aI71
aI200
aI85
aI38
aI24
aa(lp51
I586
aI801
aI374
aI213
aI331
aI1061
aI543
aI171
aI272
aI174
aI31
aI253
aI169
aI136
aI226
aI30
aI89
aI296
aI281
aI76
aI157
aI54
aI130
aI133
aI838
aI334
aI160
aI250
aI362
aI240
aI132
aI321
aI141
aI203
aI329
aI29
aI96
aI131
aI213
aI351
aI418
aI190
aI157
aI277
aI40
aI160
aI106
aI114
aI121
aI70
aI75
aI490
aI55
aI385
aI433
aI656
aI50
aI201
aI1159
aI299
aI145
aI138
aI26
aI558
aI203
aI124
aI177
aI43
aI31
aI39
aI44
aI22
aI316
aa(lp52
I354
aI1071
aI765
aI211
aI264
aI565
aI268
aI942
aI801
aI552
aI1010
aI994
aI96
aI1472
aI702
aI952
aI2969
aI4984
aI1186
aI228
aI390
aI410
aI2074
aI717
aI14
aI231
aI101
aI213
aI154
aI359
aI376
aI485
aI100
aI27
aI1267
aI152
aI451
aI183
aI523
aI418
aI555
aI490
aI454
aI2264
aI58
aI1335
aI118
aI419
aI306
aI552
aI668
aI867
aI2231
aI109
aI118
aI538
aI621
aI856
aI619
aI380
aI170
aI547
aI941
aI173
aa(lp53
I108
aI121
aI478
aI533
aI72
aI308
aI201
aa(lp54
I185
aI257
aa(lp55
I174
aI470
aI250
aI36
aI61
aI118
aa(lp56
I122
aI197
aa(lp57
I207
aI40
aa(lp58
I528
aI83
aa(lp59
I313
aI118
aI1697
aI622
aI106
aI60
aI192
aI102
aI230
aI769
aI90
aI1157
aI1387
aI1371
aa(lp60
I240
aI21
aa(lp61
I32
aI333
aI169
aI140
aI353
aI100
aI287
aI413
aI36
aI24
aI717
aI131
aI99
aI215
aa(lp62
I423
aI728
aI348
aI515
aI717
aI624
aI137
aI446
aI89
aI564
aI63
aI137
aI83
aI36
aI116
aI204
aI40
aI54
aI435
aI861
aI339
aI68
aI206
aI103
aI446
aI1053
aI537
aI104
aI257
aI373
aI569
aI41
aI134
aI54
aI417
aI65
aI157
aI113
aI235
aI70
aI120
aI1330
aI64
aI117
aI195
aI77
aI267
aI95
aI65
aI62
aI476
aI61
aI357
aI131
aI89
aI127
aI481
aI104
aI211
aI204
aI305
aI300
aI1302
aI274
aI545
aI278
aa(lp63
I176
aI75
aI177
aI129
aI420
aI302
aI216
aI27
aI23
aI51
aI165
aI32
aI62
aI190
aI209
aI362
aI84
aI45
aI86
aI121
aI36
aI38
aI56
aI128
aI17
aI500
aI36
aI17
aI62
aI298
aI29
aI53
aI28
aI40
aI16
aI19
aI36
aI24
aI35
aI25
aI76
aI81
aI127
aI83
aI102
aI124
aI10
aI23
aI180
aI452
aI79
aI38
aI124
aI37
aI21
aI21
aI97
aI77
aI44
aI211
aI30
aI92
aI56
aI19
aI132
aI22
aI24
aI75
aI24
aI69
aI33
aI16
aI34
aI19
aI22
aI19
aI15
aI28
aI33
aI77
aI55
aI148
aI175
aI12
aI21
aI27
aI49
aI75
aI38
aI27
aa(lp64
I48
aa(lp65
I242
aI103
aI44
aa(lp66
I659
aI353
aI493
aI157
aI159
aI36
aI147
aI134
aI139
aI46
aI61
aI603
aI104
aI200
aI30
aI522
aI369
aI1145
aI43
aI134
aI44
aI114
aI73
aI339
aI202
aI216
aI37
aI113
aI38
aI48
aI91
aI20
aI19
aa(lp67
I102
aI27
aa(lp68
I78
aI49
aI120
aa(lp69
I218
aa(lp70
I25
aa(lp71
I13
aa(lp72
I11
aI509
aI105
aa(lp73
I434
aI290
aI518
aI263
aI66
aI264
aI219
aI34
aI32
aI117
aI303
aI14
aI17
aI151
aI331
aa(lp74
I195
aa(lp75
I111
aI39
aI300
aI38
aa(lp76
I77
aI262
aI330
aa(lp77
I149
aI111
aI96
aI2123
aI301
aI47
aa(lp78
I44
aa(lp79
I23
aI43
aa(lp80
I155
aI458
aI113
aI144
aI283
aI128
aI59
aI123
aI112
aI217
aI47
aI797
aI706
aI530
aI320
aI241
aI144
aI291
aI172
aI534
aI579
aI117
aI245
aI108
aI221
aI94
aI409
aI968
aI467
aI383
aI907
aI54
aI123
aI474
aI65
aI71
aI37
aI91
aI102
aI39
aI85
aI55
aI393
aI20
aI39
aI150
aI40
aI80
aI62
aI41
aI51
aI109
aI481
aI85
aI192
aI78
aI160
aI64
aI39
aI410
aI74
aI154
aI91
aI62
aI40
aI72
aI113
aI123
aI47
aI201
aI201
aI464
aI204
aI24
aI116
aI182
aI197
aI189
aI137
aI139
aI696
aI386
aI326
aI409
aI126
aI129
aI55
aI89
aI125
aI176
aI68
aI286
aI55
aI32
aI164
aI95
aI20
aI154
aI111
aI515
aI35
aI785
aI375
aI105
aI150
aI178
aI122
aI187
aI21
aI75
aI41
aI23
aI19
aI48
aI19
aI164
aI49
aI107
aI113
aI169
aI242
aI75
aI21
aI27
aI89
aI49
aa(lp81
I68
aI61
aI38
aI547
aI122
aa(lp82
I97
aI48
aI44
aI34
aa(lp83
I960
aI715
aI234
aI292
aI57
aI28
aI11
aI964
aI433
aI548
aI490
aI406
aI259
aI98
aI84
aI103
aI77
aI53
aI78
aI160
aI382
aI102
aI861
aI49
aI202
aI251
aI53
aI90
aI128
aI65
aI64
aI116
aI202
aI54
aI38
aI229
aI50
aI30
aI278
aI126
aI38
aI90
aI50
aI31
aI91
aI80
aI44
aI764
aI168
aI363
aI33
aI83
aI38
aI59
aI405
aI134
aI35
aI128
aI53
aI73
aI300
aI114
aI662
aI753
aI240
aI166
aI152
aI79
aI130
aI234
aI38
aI165
aI256
aI53
aI112
aI124
aI96
aI196
aI66
aI74
aI42
aI88
aI270
aI387
aI451
aI50
aI149
aI122
aI99
aI528
aI31
aI64
aI429
aI34
aI33
aI126
aI154
aI249
aI468
aI256
aI181
aI222
aI128
aI122
aI16
aI25
aI133
aI191
aI42
aI579
aI148
aI232
aI77
aI77
aI43
aI217
aI210
aI384
aI293
aI455
aI334
aI33
aI31
aI454
aI327
aI294
aI204
aI184
aI319
aI26
aI72
aI38
aI41
aI320
aI186
aI115
aI1072
aI1116
aI605
aI129
aI505
aI312
aI282
aI358
aI641
aI126
aI351
aI256
aI176
aI42
aI314
aI55
aI269
aI313
aI470
aI88
aI189
aI58
aI181
aI282
aI282
aI325
aI60
aI111
aI120
aI100
aI24
aI126
aI340
aI144
aI32
aI131
aI441
aI95
aI19
aI50
aI335
aI67
aI63
aI111
aI136
aI135
aI706
aI281
aI106
aI463
aI39
aI289
aI123
aI48
aI496
aI65
aI323
aI30
aI80
aI283
aI147
aa(lp84
I451
aa(lp85
I2306
aI913
aI133
aI43
aI363
aI40
aI1689
aI100
aI922
aI804
aI1906
aI356
aI1267
aI618
aI601
aI82
aI12
aI983
aI544
aI38
aI244
aI32
aI347
aI266
aI941
aI247
aI267
aI856
aI220
aI301
aI97
aI329
aI798
aI88
aI402
aI360
aI675
aI2492
aI235
aI223
aI30
aI641
aI808
aI41
aI523
aI374
aI201
aI230
aI972
aI1121
aI458
aI930
aI169
aI1125
aI364
aI185
aI261
aI536
aI221
aI68
aI3426
aI697
aI537
aI703
aI589
aI50
aI1741
aI223
aI157
aI641
aI316
aI525
aI788
aI136
aI417
aI52
aI249
aI151
aI73
aI232
aI398
aI771
aI181
aI42
aI97
aI55
aI755
aI528
aI885
aI316
aI153
aI196
aI105
aI173
aI255
aI260
aI178
aI131
aI179
aI381
aI560
aI344
aI64
aI337
aI100
aI454
aI222
aI1603
aI255
aI569
aI148
aI380
aI425
aI519
aI381
aI407
aI588
aI210
aI516
aI239
aI385
aI597
aI454
aI197
aI97
aI59
aI56
aI1914
aI200
aI83
aI180
aI902
aI1490
aI211
aI1072
aI829
aI196
aI181
aI553
aI639
aI376
aI350
aI116
aI363
aI106
aI1139
aI229
aI244
aI665
aI241
aI588
aI98
aI138
aI187
aI96
aI155
aI1007
aI780
aI440
aI180
aI286
aI49
aI925
aI764
aI703
aI1297
aI479
aI661
aI88
aI104
aI44
aI13
aI106
aI234
aI356
aI553
aI42
aI270
aI198
aI168
aI400
aI63
aI251
aI264
aI181
aI98
aI42
aI98
aI720
aI1588
aI2151
aI993
aI719
aI46
aI90
aI216
aa(lp86
I194
aI420
aI114
aI107
aI273
aI81
aa(lp87
I67
aI75
aI39
aI118
aI210
aI50
aa(lp88
I58
aI737
aI285
aI95
aa(lp89
I61
aa(lp90
I193
aI72
aI603
aI95
aI64
aI154
aI341
aI599
aI172
aI510
aI208
aI109
aI88
aI141
aa(lp91
I328
aI373
aa(lp92
I127
aI201
aI147
aI171
aI119
aI181
aI893
aI1254
aI349
aI139
aI443
aI300
aI112
aI223
aI71
aI690
aI466
aI517
aI110
aI556
aI310
aI382
aI74
aI48
aI176
aa(lp93
I22
aa(lp94
I205
aI244
aI381
aI121
aI631
aI230
aI142
aI254
aI1138
aI47
aI280
aI435
aI32
aI37
aI392
aI251
aI68
aI95
aI487
aI241
aI54
aI21
aI659
aI668
aI580
aI437
aI391
aI155
aI889
aI159
aI229
aI260
aI190
aI73
aI169
aI21
aI393
aI195
aI345
aI253
aI74
aI122
aI131
aI56
aI50
aI83
aI68
aI51
aI11
aI257
aI175
aI202
aI289
aI157
aI370
aI118
aa(lp95
I432
aI1648
aI1006
aI349
aI147
aI436
aI251
aI556
aI1007
aI641
aI457
aI241
aa(lp96
I53
aI656
aI175
aI329
aI173
aI383
aI10
aI44
aI84
aI99
aI515
aI262
aI1440
aI220
aI240
aI180
aI170
aI140
aI105
aI28
aI436
aI295
aI21
aI859
aI579
aI339
aI928
aI193
aI96
aI600
aI1190
aI979
aI373
aI1252
aI58
aI146
aI308
aI781
aI824
aI710
aI612
aI67
aI50
aI86
aI814
aI1098
aa(lp97
I1909
aI1165
aI134
aI149
aI343
aI616
aa(lp98
I89
aI63
aI111
aI1715
aI978
aI458
aI264
aI32
aI1422
aI1999
aI79
aI93
aI117
aI252
aI956
aI337
aI516
aI239
aI34
aI502
aI52
aI40
aI99
aI104
aI80
aI315
aI56
aI17
aI37
aI110
aI1013
aI178
aI157
aI459
aI402
aI85
aI109
aI119
aI52
aI78
aI88
aI975
aI816
aI1290
aI1021
aI991
aI224
aI555
aI76
aI127
aI615
aI194
aI1465
aI167
aI935
aI29
aI31
aI56
aI99
aI97
aI76
aI37
aI39
aI67
aI1083
aI368
aI426
aI208
aI178
aI217
aI42
aI203
aI422
aI195
aI54
aI655
aI62
aI491
aI247
aI57
aI231
aI166
aI384
aI127
aI142
aI255
aI38
aI263
aI173
aI56
aI25
aI270
aI231
aI101
aI224
aI256
aI699
aI132
aI739
aI162
aI442
aI150
aI153
aI295
aI163
aI60
aI402
aI159
aI448
aI112
aI47
aI45
aI183
aI158
aI422
aI248
aI107
aI424
aI438
aI509
aI2607
aI56
aI196
aI296
aI119
aI115
aI109
aI55
aI24
aa(lp99
I105
aI35
aI168
aI563
aI190
aI144
aI255
aI345
aI502
aI99
aa(lp100
I100
aI35
aa(lp101
I266
aI79
aI36
aI124
aI26
aI457
aI148
aI177
aI99
aI347
aI339
aI382
aI162
aI112
aI55
aI15
aI51
aI156
aI312
aI135
aI449
aI247
aI46
aI60
aI77
aI50
aI34
aI67
aI222
aI41
aI526
aI144
aI199
aI125
aI52
aI68
aI30
aI31
aI23
aI87
aI86
aI25
aa(lp102
I257
aI23
aI50
aI47
aa(lp103
I104
aI29
aI26
aI194
aI212
aI120
aI176
aI89
aI308
aI83
aI192
aI251
aI99
aI553
aI680
aI1436
aI1527
aI702
aI152
aI140
aI169
aI86
aI65
aI121
aI63
aI192
aI279
aI209
aI161
aI107
aI454
aI342
aI45
aI158
aI234
aI72
aI88
aI274
aI183
aI102
aa(lp104
I259
aI475
aI322
aI185
aI185
aI165
aI234
aI76
aI115
aI589
aI46
aI230
aI1100
aI463
aI53
aI70
aI25
aI49
aI59
aI39
aI128
aI507
aI39
aI493
aI109
aI165
aI66
aI51
aI127
aa(lp105
I50
aI663
aI933
aI683
aI562
aI102
aI167
aa(lp106
I40
aI82
aI195
aa(lp107
I916
aI455
aI135
aa(lp108
I284
aI327
aI184
aI688
aI565
aI104
aI331
aI227
aI232
aI643
aI239
aI192
aI305
aI273
aI392
aI286
aI1841
aI797
aI3796
aI312
aI34
aI160
aI194
aI263
aI87
aI180
aI145
aI531
aI142
aI320
aI114
aI151
aI206
aI91
aI344
aI205
aI40
aI189
aI107
aI171
aI552
aI89
aI261
aI199
aI105
aI780
aI97
aI10
aI10
aI10
aI449
aI151
aI138
aI85
aI101
aI253
aI828
aI130
aI175
aI319
aI65
aI88
aI216
aI40
aI139
aI82
aI11
aI21
aI25
aI66
aI178
aI179
aI17
aI388
aI96
aI102
aI44
aI431
aI195
aI45
aI237
aI627
aI681
aI186
aI55
aI143
aI69
aI356
aI77
aI34
aI29
aI28
aI35
aI60
aI28
aI44
aI19
aI34
aI115
aI1517
aI537
aI382
aI861
aI250
aI189
aI60
aI88
aI209
aI82
aI650
aI143
aI45
aI107
aI668
aI419
aI132
aI225
aI383
aI181
aI223
aI200
aI84
aI104
aI123
aI132
aI538
aI204
aI102
aI721
aI44
aI84
aI49
aI348
aI1347
aI473
aI398
aI509
aI175
aI294
aI198
aI135
aI161
aI281
aI30
aI1510
aI245
aI56
aI44
aI69
aI116
aI96
aI68
aI416
aI285
aI1307
aI240
aI175
aI55
aI322
aI195
aI80
aI123
aI601
aI879
aI163
aI153
aI245
aI228
aI364
aI95
aI160
aI43
aI998
aI25
aI383
aI377
aa(lp109
I51
aI49
aI109
aI46
aI71
aI223
aI188
aI89
aI77
aI188
aI141
aa(lp110
I61
aI311
aI253
aI1159
aI90
aa(lp111
I88
aI71
aI79
aI165
aI53
aI47
aI504
aI215
aI234
aa(lp112
I2193
aI411
aI55
aI96
aI95
aI1352
aI224
aI288
aI1828
aI358
aI317
aI119
aI68
aI154
aI167
aI372
aI539
aI783
aI582
aI931
aI334
aI331
aI178
aI57
aI417
aI73
aI641
aI263
aI211
aI462
aI147
aI345
aI291
aI970
aI267
aI1142
aI1506
aI344
aI150
aI106
aI41
aI102
aI213
aI27
aI34
aI95
aI105
aI103
aI722
aI150
aI27
aI1091
aI660
aI223
aI379
aI321
aI207
aa(lp113
I446
aI194
aI63
aa(lp114
I1008
aI142
aI600
aI520
aI485
aI235
aI409
aI351
aI965
aI563
aI990
aI330
aI849
aI793
aI1951
aI458
aI58
aI293
aI182
aI307
aI279
aI246
aI452
aI156
aI284
aI25
aI366
aI167
aI384
aI71
aa(lp115
I196
aI158
aI217
aI23
aI147
aI39
aI73
aa(lp116
I264
aa(lp117
I467
aa(lp118
I27
aI43
aI59
aI84
aI232
aI282
aa(lp119
I576
aI507
aI654
aI503
aI689
aI129
aI860
aI1298
aI694
aI308
aI134
aI41
aI138
aI223
aI349
aI172
aI266
aI106
aI340
aI215
aI178
aI329
aI555
aI156
aI86
aI80
aI174
aI243
aI51
aI150
aI584
aI507
aI48
aI62
aa(lp120
I374
aI126
aI140
aI252
aI169
aI45
aI123
aI131
aI503
aI217
aI74
aI65
aI109
aI95
aI46
aI43
aI78
aI34
aI77
aI181
aI953
aI74
aI113
aI156
aI52
aI112
aI75
aI107
aI89
aI169
aI213
aI35
aI180
aI157
aI79
aI663
aI92
aI43
aI52
aI132
aI23
aI144
aI66
aI316
aI35
aI31
aI79
aI309
aI65
aI38
aI35
aI59
aI161
aI714
aI204
aI285
aI110
aI42
aI47
aI149
aI101
aI140
aI84
aI72
aI172
aI39
aI70
aI81
aI124
aI126
aI166
aI166
aI277
aI88
aI100
aI357
aI249
aI585
aI96
aI34
aI1779
aI312
aI129
aI60
aI122
aI60
aI142
aI127
aI42
aI50
aI243
aa(lp121
I137
aI319
aa(lp122
I163
aI153
aI186
aa(lp123
I296
aa(lp124
I225
aI143
aI52
aI122
aI109
aI72
aI42
aI49
aI15
aI17
aI37
aI38
aI33
aI41
aI58
aI50
aI37
aI86
aI63
aI52
aI80
aI94
aI132
aI143
aI64
aI301
aI114
aI92
aI193
aI165
aI215
aI195
aI51
aI121
aI36
aI73
aI58
aI72
aI62
aI65
aI30
aI260
aI95
aI278
aI99
aI297
aI117
aI143
aI106
aI33
aI247
aI42
aI25
aI86
aI82
aI435
aI181
aI99
aI25
aI49
aI449
aI75
aI16
aI134
aI50
aI194
aI189
aI89
aI57
aI92
aI59
aI160
aI216
aI126
aI105
aI58
aI59
aI64
aI69
aI69
aI149
aI72
aI127
aI101
aI23
aI49
aI165
aI54
aI61
aI71
aI14
aI130
aI44
aI59
aI170
aI24
aI39
aI128
aI162
aI96
aI84
aI56
aI98
aI85
aI139
aI78
aI269
aI58
aI60
aI47
aI59
aI119
aI43
aI13
aI57
aI224
aI214
aI37
aI21
aI32
aI265
aI414
aI144
aI590
aI35
aI287
aI11
aI63
aI54
aI116
aI93
aI113
aI42
aI46
aI72
aI12
aI158
aI196
aI136
aI161
aI230
aI13
aI82
aI9
aI24
aI32
aI261
aI13
aa(lp125
I25
aa(lp126
I417
aI419
aI991
aI789
aI545
aI341
aI297
aI542
aI651
aI269
aI399
aI819
aI57
aI193
aI110
aI126
aI814
aa(lp127
I147
aI157
aI327
aI240
aI154
aI53
aI98
aI377
aI336
aI26
aI302
aI110
aI82
aI278
aI305
aI203
aI161
aI52
aI298
aI491
aI195
aI117
aI116
aI157
aI186
aI395
aI167
aI87
aI27
aI514
aI652
aI467
aI657
aI144
aI98
aI265
aI212
aI339
aI109
aI278
aI36
aI385
aI146
aI99
aI98
aI669
aI146
aI479
aI498
aI384
aI401
aI110
aI355
aI291
aI48
aI124
aI95
aI93
aI47
aI260
aa(lp128
I23
aI71
aI14
aI289
aI75
aa(lp129
I19
aa(lp130
I73
aI82
aI53
aI97
aI138
aa(lp131
I132
aI142
aI1009
aI172
aI307
aI262
aI101
aI70
aI108
aI1101
aI395
aI653
aI459
aI53
aI60
aI178
aI387
aI442
aI598
aI578
aI326
aI298
aI68
aI34
aI253
aI111
aI574
aI389
aI406
aI205
aI585
aI399
aI959
aI465
aI111
aI476
aI100
aI198
aI215
aI32
aI1241
aI231
aI25
aI152
aI209
aI758
aI421
aI124
aI161
aI35
aI39
aI259
aI321
aI105
aI80
aI248
aI164
aI184
aI367
aI325
aI322
aI72
aI152
aI112
aI420
aI272
aI162
aI168
aI67
aa(lp132
I122
aI135
aa(lp133
I260
aa(lp134
I781
aI419
aI2443
aI434
aI1046
aI133
aI94
aI98
aa(lp135
I334
aI191
aa(lp136
I99
aI178
aI554
aI173
aI233
aI154
aI59
aI721
aI23
aI401
aI41
aa(lp137
I79
aI135
aI115
aa(lp138
I175
aI437
aI182
aI93
aI130
aI224
aI362
aI93
aI125
aI763
aI787
aI636
aI2455
aI98
aI29
aa(lp139
I124
aI190
aI123
aI283
aI351
aI56
aI92
aI218
aI143
aI67
aI103
aI106
aI38
aI248
aI137
aI378
aI15
aI133
aI500
aI110
aI51
aI284
aI71
aI23
aI45
aI26
aI308
aI906
aI212
aI70
aI152
aI86
aI19
aI27
aI43
aI99
aI34
aI53
aI105
aI162
aI33
aI40
aI57
aI689
aI39
aI2412
aI149
aI261
aI90
aI17
aI725
aI143
aI173
aI272
aI303
aI269
aI138
aI17
aI111
aI389
aI1686
aI93
aI136
aI398
aI528
aI120
aI157
aI32
aI77
aI163
aI100
aI515
aI15
aI194
aI542
aI762
aI96
aI292
aI293
aI53
aI88
aI45
aI155
aI2112
aI105
aI75
aI160
aI191
aI1173
aI142
aI271
aI1691
aI142
aI364
aI106
aI150
aI348
aI465
aI79
aI229
aI69
aI503
aI324
aI30
aI28
aI114
aI125
aI49
aI357
aI379
aI32
aI63
aI62
aI509
aI428
aI164
aI75
aI126
aI406
aI182
aI316
aI757
aI333
aI173
aI252
aI149
aI218
aI41
aI336
aI206
aI53
aI293
aI828
aI344
aI608
aI260
aI79
aI692
aI106
aI28
aI218
aI16
aI182
aI29
aI100
aI288
aI61
aI198
aI103
aI130
aI19
aI128
aI224
aI128
aI236
aI608
aI56
aI617
aI204
aI324
aI86
aI36
aI638
aI495
aI96
aI264
aI131
aI47
aI63
aI30
aI655
aI406
aI329
aI197
aI42
aI214
aI100
aI131
aI209
aI245
aI315
aI257
aI40
aI78
aI9
aI290
aI302
aI206
aI31
aI62
aa(lp140
I43
aI85
aI25
aI16
aI59
aI38
aI19
aI166
aI53
aI22
aI39
aI16
aI16
aI204
aI22
aI11
aI22
aI188
aI58
aI545
aI27
aI21
aI254
aI589
aI83
aI381
aI62
aI187
aI15
aI32
aI125
aI344
aI403
aI244
aI86
aI554
aI165
aI69
aI50
aI36
aI30
aI46
aI23
aI68
aI783
aI54
aI283
aI543
aI340
aI805
aI136
aI497
aI58
aI112
aI387
aI204
aI141
aI38
aI42
aI92
aI32
aI83
aI59
aI11
aI171
aI19
aI240
aI25
aI489
aI19
aI61
aI126
aI95
aI469
aI163
aI212
aI35
aI142
aI45
aI202
aI503
aa(lp141
I296
aI125
aI131
aI32
aI230
aI234
aI390
aI47
aI63
aI260
aI161
aI139
aI186
aa(lp142
I858
aI904
aI2888
aI327
aI1209
aI257
aI431
aI69
aI44
aI385
aI621
aa(lp143
I137
aa(lp144
a(lp145
I391
aI100
aI231
aI47
aI563
aI381
aI671
aa(lp146
I102
aI86
aI24
aI114
aI493
aI210
aI434
aI188
aI333
aI897
aI293
aI128
aI73
aI223
aI219
aI148
aI291
aI98
aI478
aI432
aI1790
aI1542
aI966
aI59
aI88
aI312
aI425
aI304
aI226
aI180
aI366
aI22
aI555
aI79
aI287
aI209
aI140
aI280
aI18
aI42
aI41
aI46
aI59
aI48
aI43
aI251
aI206
aI230
aI68
aI76
aI353
aI308
aI30
aI176
aI137
aI226
aI318
aI173
aI78
aI448
aI460
aI177
aI394
aI183
aI51
aI126
aI147
aI286
aI271
aI813
aI754
aI606
aI480
aI203
aI45
aI550
aI352
aI461
aI385
aI180
aI19
aI34
aI968
aI197
aI663
aI125
aa(lp147
I162
aa(lp148
I36
aI125
aa(lp149
I309
aI111
aa(lp150
I241
aI397
aI1863
aI89
aI241
aI170
aI54
aI98
aI425
aI1732
aI296
aI546
aI724
aI96
aI321
aI56
aI318
aI105
aI125
aI461
aI290
aI165
aI82
aI414
aI115
aI2348
aI571
aI185
aI171
aa(lp151
I146
aI145
aI42
aI134
aI96
aI294
aI70
aI27
aI305
aI187
aI379
aI41
aI96
aI43
aI22
aI259
aI79
aa(lp152
a(lp153
I189
aI59
aI85
aa(lp154
a(lp155
a(lp156
I487
aI94
aI51
aI40
aI120
aI125
aI393
aI124
aI28
aI281
aI212
aI476
aa(lp157
I865
aI875
aI1086
aI298
aI297
aI36
aI291
aI1150
aI161
aI666
aI603
aI1153
aI1136
aI512
aI375
aI394
aI188
aI147
aI128
aI50
aI53
aI365
aI261
aI168
aI1476
aI817
aI1650
aI553
aI371
aI376
aI479
aI329
aI654
aI1103
aI1446
aI1673
aI1676
aI251
aI186
aI80
aI306
aI262
aI542
aI291
aI239
aI198
aI1594
aI527
aI879
aI476
aI115
aI152
aI530
aI137
aI59
aI1145
aI605
aI118
aI122
aI1121
aI381
aI2521
aI780
aI1518
aI464
aI71
aI32
aI289
aI291
aI209
aI134
aI500
aI234
aI101
aI166
aI953
aI286
aI2342
aI393
aI219
aI551
aI292
aI161
aI219
aI1147
aI331
aI383
aI214
aI202
aI152
aI326
aI127
aI81
aI89
aI119
aI194
aI48
aI55
aI1061
aI247
aI71
aI807
aI528
aI110
aI323
aI764
aI126
aI245
aI432
aI1138
aI54
aI23
aI138
aI157
aI179
aI156
aI136
aI523
aI173
aI106
aI59
aI63
aI210
aI40
aI135
aI33
aI47
aI98
aI114
aI301
aI1601
aI1725
aI355
aI78
aI322
aI666
aI40
aI108
aI89
aI281
aI455
aI110
aI120
aI319
aI600
aI677
aI107
aI13
aI31
aI476
aI40
aI20
aI441
aI986
aI719
aI195
aI961
aI73
aI140
aI312
aI443
aI136
aI232
aI13
aI500
aI453
aI700
aI847
aI162
aI310
aI272
aI1733
aI441
aI104
aI399
aI308
aI199
aI177
aI65
aI573
aa(lp158
I89
aI672
aI1934
aI208
aI162
aI16
aI132
aI472
aI365
aI60
aI615
aI186
aI880
aI243
aa(lp159
I33
aI530
aI117
aI330
aI190
aa(lp160
a(lp161
I9
aI80
aI373
aI721
aa(lp162
I288
aI420
aI72
aI59
aI124
aI132
aI676
aI466
aI50
aI88
aI140
aI208
aI177
aI88
aI191
aI117
aI310
aI1092
aI900
aI358
aI393
aI226
aI145
aI176
aI269
aI110
aI183
aI858
aI289
aI127
aI271
aI299
aI106
aI1201
aI583
aI461
aI98
aI55
aI41
aI248
aI59
aI395
aI69
aI276
aI478
aI369
aI474
aI551
aI610
aI1560
aI538
aI610
aI746
aI877
aI1477
aI371
aI2319
aI283
aI344
aI244
aI663
aI229
aI174
aI171
aI35
aI69
aI155
aI73
aI134
aI161
aI120
aI404
aI92
aI59
aI36
aI86
aI102
aI73
aI121
aI614
aI281
aI185
aI292
aI35
aI42
aI107
aI381
aI178
aI781
aI112
aI58
aI90
aI73
aI319
aI150
aI196
aI270
aI101
aI663
aI234
aI430
aI712
aI445
aI48
aI121
aI231
aI163
aI41
aI130
aI41
aI31
aI53
aa(lp163
I60
aa(lp164
I601
aI142
aI186
aI135
aI141
aa(lp165
I25
aa(lp166
I129
aI28
aa(lp167
I102
aI81
aI147
aa(lp168
I251
aI68
aI87
aI57
aI662
aI585
aa(lp169
I865
aI795
aI275
aI218
aI650
aI106
aI536
aI401
aI756
aI134
aI38
aI328
aI243
aI248
aI311
aI178
aI650
aI191
aI643
aI126
aI529
aI50
aI258
aI645
aI542
aI864
aI2472
aI2325
aI1278
aI5200
aI332
aI482
aI276
aI280
aI1094
aI617
aI1528
aI24
aa(lp170
I285
aa(lp171
a(lp172
I998
aI1181
aI638
aI380
aI129
aa(lp173
a(lp174
I248
aI991
aI543
aI832
aI190
aI359
aI740
aI722
aI153
aI152
aI101
aI24
aI89
aa(lp175
I55
aI182
aI30
aa(lp176
I46
aI546
aI329
aI424
aI592
aa(lp177
I58
aI334
aI305
aI408
aI1114
aI259
aa(lp178
I274
aI178
aI294
aI656
aI22
aI184
aI90
aI97
aI52
aI49
aI172
aI167
aI158
aI114
aI193
aI166
aI20
aI17
aI70
aI97
aI86
aI145
aI259
aI314
aI19
aa(lp179
I113
aI915
aI633
aI529
aI378
aI110
aI433
aI262
aI258
aI141
aI249
aI83
aI73
aI1024
aI36
aI594
aI78
aI286
aI50
aI516
aI302
aI923
aI1233
aI123
aI77
aI1184
aI109
aI384
aI321
aI539
aI276
aI146
aI153
aI31
aI190
aI409
aI156
aI17
aI155
aI200
aI86
aI67
aI254
aI23
aI39
aI179
aI97
aI168
aI891
aI617
aI385
aI588
aI311
aI69
aI1274
aI645
aI551
aI229
aa(lp180
I162
aa(lp181
I2493
aI80
aI876
aI305
aI340
aI42
aI132
aI298
aI461
aI68
aI385
aI194
aI178
aI414
aI1019
aI87
aI439
aI207
aI412
aI106
aI15
aI316
aI124
aI20
aI378
aI110
aI379
aI79
aI91
aI397
aI135
aI445
aI401
aI238
aI388
aI320
aI394
aI705
aI431
aI297
aI1202
aI503
aI71
aI616
aI1155
aI29
aI155
aI113
aI28
aI82
aI313
aI142
aI81
aI20
aI50
aa(lp182
I122
aI106
aI431
aI216
aI463
aI11
aI10
aa(lp183
a(lp184
I226
aI91
aI98
aI90
aI135
aI181
aI145
aI282
aI160
aI83
aa(lp185
I87
aI1449
aI276
aI130
aI94
aa(lp186
a(lp187
I50
aI210
aa(lp188
I44
aI111
aI290
aI236
aI265
aI191
aI206
aI52
aI112
aI170
aI105
aI84
aI56
aI54
aI92
aI566
aI116
aa(lp189
I171
aI93
aa(lp190
I109
aI182
aI263
aI28
aI91
aI278
aI49
aI184
aI90
aI492
aa(lp191
I273
aI146
aI248
aI63
aI392
aa(lp192
I366
aI98
aI41
aI31
aI66
aI285
aI153
aI138
aI1086
aa(lp193
I808
aI507
aI120
aa(lp194
I111
aI183
aa(lp195
I73
aI232
aI811
aI479
aI459
aI643
aa(lp196
I438
aI267
aI144
aI133
aI15
aa(lp197
I416
aI420
aI819
aI546
aI352
aI420
aI556
aI593
aI251
aI66
aI78
aI51
aI310
aI226
aI174
aI307
aa(lp198
I102
aa(lp199
I71
aI67
aI130
aI20
aa(lp200
a(lp201
I42
aI161
aI217
aI395
aa(lp202
I75
aI342
aI249
aI110
aI89
aI247
aI148
aI118
aa(lp203
I84
aI54
aI45
aa(lp204
a(lp205
I48
aI45
aI21
aI151
aI131
aI81
aa(lp206
I145
aI74
aI129
aI194
aI235
aI717
aI28
aa(lp207
I751
aI83
aa(lp208
I106
aI201
aI353
aI81
aI181
aI562
aI57
aI177
aI15
aa(lp209
I117
aI157
aI512
aI272
aI399
aI783
aI144
aI216
aI372
aa(lp210
I128
aI99
aa(lp211
I147
aI441
aI50
aI80
aI193
aI46
aI272
aI582
aI246
aI164
aI64
aI19
aI288
aI352
aI87
aI35
aI407
aI60
aI190
aa(lp212
I116
aa(lp213
I153
aI189
aI54
aI47
aI203
aI105
aI784
aI172
aI208
aI228
aI192
aI189
aa(lp214
I78
aa(lp215
I74
aI267
aI633
aI188
aI288
aI1156
aI231
aI543
aI93
aI647
aI55
aI162
aI293
aI56
aI215
aI344
aI259
aI45
aI93
aI743
aI99
aI218
aa(lp216
I153
aI347
aI118
aI126
aI673
aI236
aI404
aI839
aI884
aI21
aa(lp217
I53
aa(lp218
I309
aa(lp219
I68
aI421
aI144
aI111
aI319
aI391
aI202
aI264
aI596
aI222
aI233
aI130
aI43
aa(lp220
I472
aI664
aa(lp221
I259
aa(lp222
I177
aI88
aa(lp223
I159
aI855
aI285
aI694
aI60
aI148
aI443
aI1362
aI778
aI227
aI317
aI661
aI1872
aI745
aI368
aI78
aI309
aI240
aI409
aI506
aI77
aI276
aI320
aI443
aI76
aI92
aI38
aI471
aI147
aI123
aI232
aI191
aI904
aI69
aI125
aI230
aI191
aI844
aI80
aa(lp224
I59
aa(lp225
I112
aI254
aa(lp226
I27
aI163
aI154
aI214
aI277
aa(lp227
I86
aI185
aI162
aI737
aI37
aI18
aI113
aI337
aI434
aI91
aI105
aI32
aI50
aI72
aI123
aI180
aI34
aI110
aI286
aI149
aI26
aI211
aI124
aI383
aI179
aI115
aI178
aI170
aI41
aI62
aI468
aI20
aI62
aI54
aI205
aa(lp228
I277
aI918
aI133
aI47
aI51
aI1512
aI418
aI98
aI163
aI434
aI225
aI173
aI289
aI52
aI80
aI81
aI741
aI161
aI182
aI140
aI360
aI610
aI176
aI140
aI76
aI58
aI76
aI110
aI29
aa(lp229
I143
aI465
aI114
aI177
aI647
aI377
aI296
aI170
aI120
aI949
aI1257
aI166
aI686
aI540
aI499
aI853
aI334
aI76
aI56
aI274
aI1290
aI784
aI382
aI23
aI116
aa(lp230
I74
aa(lp231
I134
aI58
aI40
aa(lp232
I76
aI135
aI72
aI74
aI136
aI291
aI261
aI334
aI569
aa(lp233
I160
aI111
aI13
aI92
aI11
aa(lp234
I218
aI133
aI38
aI77
aI74
aI884
aa(lp235
I361
aI101
aI155
aI156
aI98
aI77
aI193
aI214
aI569
aa(lp236
I209
aI735
aI113
aI98
aI266
aI205
aI319
aI235
aI162
aI448
aI81
aI210
aI116
aI99
aI171
aI72
aI40
aI162
aI50
aI350
aI225
aI63
aI13
aa(lp237
I29
aI224
aI99
aI320
aI183
aa(lp238
I395
aI71
aI187
aI313
aa(lp239
I141
aI230
aI212
aI379
aI633
aa(lp240
I268
aa(lp241
I383
aI409
aI344
aI952
aI1434
aI505
aI345
aI291
aI275
aI484
aa(lp242
I233
aI988
aI346
aI40
aI235
aa(lp243
I107
aI1735
aI234
aI191
aa(lp244
I83
aI227
aI198
aI101
aI51
aI199
aI303
aI247
aI298
aI136
aI70
aI69
aI92
aI98
aI374
aa(lp245
I72
aI293
aI110
aI235
aI35
aI108
aa(lp246
I840
aI433
aI173
aI385
aI357
aI122
aI110
aI112
aI436
aI127
aI447
aI330
aI94
aI219
aI529
aI569
aI224
aI546
aI212
aI294
aI112
aI132
aI519
aI379
aI1019
aI24
aI95
aI470
aI392
aI93
aI81
aI300
aI63
aI187
aI224
aI61
aI160
aI659
aI756
aI680
aI605
aI208
aI162
aI183
aI451
aI157
aI390
aI140
aI218
aI325
aI206
aI843
aI866
aI158
aI198
aI75
aI17
aa(lp247
I54
aa(lp248
I458
aI144
aI317
aI210
aI75
aI371
aI189
aI526
aI637
aa(lp249
I282
aI1529
aI20
aI138
aI292
aI91
aI548
aI559
aI334
aI269
aI47
aI95
aa(lp250
I401
aI279
aI195
aI79
aI462
aI173
aI107
aI118
aI430
aI135
aI154
aI189
aI265
aI248
aa(lp251
I100
aI607
aI14
aI195
aI530
aI81
aI184
aI627
aa(lp252
I467
aI196
aI559
aI255
aI144
aI306
aI162
aI71
aI69
aI122
aI332
aI334
aI114
aI1068
aI324
aI168
aI169
aI691
aa(lp253
I148
aI308
aI473
aI433
aI877
aI51
aI100
aa(lp254
I512
aI497
aI64
aI180
aI70
aI46
aI105
aI182
aI153
aI54
aa(lp255
I152
aI207
aI109
aI218
aI437
aI198
aI112
aI87
aI105
aI133
aI77
aI206
aI501
aI335
aI88
aI90
aI190
aI203
aa(lp256
a(lp257
I248
aI952
aa(lp258
I89
aa(lp259
I305
aI401
aI119
aI149
aI114
aa(lp260
I171
aI94
aI148
aI254
aI31
aI65
aI718
aI155
aI419
aI14
aI215
aI143
aI1539
aI63
aI489
aI95
aI344
aI353
aI340
aI551
aI1057
aI871
aI321
aI1161
aI798
aI312
aI626
aI399
aI165
aI206
aI534
aI544
aI32
aI249
aI140
aI30
aI123
aI755
aa(lp261
I133
aI198
aI270
aI612
aI720
aI25
aa(lp262
I797
aI597
aa(lp263
a(lp264
I568
aI400
aI129
aI139
aI77
aa(lp265
I379
aI481
aI317
aI188
aI374
aI344
aI313
aI488
aI33
aI622
aI243
aI90
aI188
aI202
aI308
aI564
aI60
aa(lp266
I474
aI136
aI276
aI277
aI198
aI189
aI272
aI49
aI173
aI204
aI39
aa(lp267
I10
aI148
aI61
aI52
aI19
aI204
aa(lp268
I856
aI230
aI137
aa(lp269
I76
aI339
aI93
aI227
aI197
aI660
aI90
aI374
aI114
aI486
aI227
aI197
aI227
aI197
aI88
aI813
aI151
aI102
aI77
aI403
aI217
aI229
aI391
aI146
aI247
aI1343
aI113
aI983
aa(lp270
I934
aI229
aI12
aI40
aI153
aI332
aI57
aI640
aI96
aI68
aI192
aI552
aI46
aI103
aI57
aI431
aI1243
aI113
aI50
aI180
aI127
aI237
aI79
aI224
aI151
aI269
aI171
aI39
aI478
aI479
aI45
aI297
aa(lp271
I156
aI263
aI164
aI96
aI85
aa(lp272
I115
aI185
aI1029
aI61
aI222
aI1525
aI486
aI292
aI231
aI123
aI815
aI536
aI235
aI169
aa(lp273
I268
aa(lp274
I32
aI464
aI61
aI62
aI1479
aI330
aI603
aI110
aI73
aa(lp275
I290
aI13
aI1174
aI175
aa(lp276
I40
aI76
aa(lp277
I160
aI40
aa(lp278
I229
aI290
aI32
aI132
aI144
aI49
aI77
aI111
aI109
aa(lp279
I133
aI49
aI38
aI135
aI77
aI71
aI349
aI14
aI198
aI190
aI157
aI573
aI373
aI87
aI172
aI136
aI142
aI108
aI51
aI23
aI103
aI140
aI41
aI60
aI688
aI293
aI430
aI112
aI183
aI270
aI549
aI43
aI250
aI257
aI231
aI211
aI97
aI118
aI548
aI366
aI224
aI84
aI821
aI329
aI67
aI327
aI58
aI42
aI223
aI134
aI260
aI265
aI571
aI139
aI86
aI243
aI149
aI158
aI245
aI60
aI154
aI51
aI56
aI89
aI312
aI680
aI202
aI260
aI269
aI286
aI222
aI161
aI386
aI211
aI291
aI507
aI192
aa(lp280
I130
aa(lp281
I103
aI91
aI99
aI188
aI109
aI107
aI283
aI170
aI184
aa(lp282
I170
aI25
aI140
aI384
aI91
aI34
aa(lp283
I101
aI105
aI185
aI342
aI501
aI139
aI34
aI38
aI34
aI348
aI118
aI61
aI40
aa(lp284
I32
aI74
aI107
aI28
aI176
aI458
aa(lp285
I104
aI212
aI177
aI126
aI317
aI39
aa(lp286
I127
aI754
aI598
aI841
aa(lp287
I150
aI206
aa(lp288
a(lp289
I104
aI562
aI88
aI534
aI130
aI1019
aI411
aI34
aa(lp290
I171
aI403
aa(lp291
I758
aI168
aI57
aI272
aI35
aI14
aI41
aa(lp292
I434
aa(lp293
I109
aI112
aa(lp294
I1049
aI536
aI481
aI426
aI99
aa(lp295
I42
aI434
aI116
aI366
aI361
aI125
aI212
aI273
aI620
aI470
aI202
aI261
aI203
aI112
aI200
aa(lp296
I335
aa(lp297
a(lp298
I31
aa(lp299
I496
aa(lp300
I33
aI50
aI30
aa(lp301
I50
aI303
aI30
aa(lp302
I270
aa(lp303
I101
aa(lp304
I83
aa(lp305
I126
aI349
aI361
aI3466
aI276
aI596
aI59
aI60
aI91
aI181
aI725
aI191
aI831
aI459
aI816
aI609
aI482
aI945
aI483
aI794
aI602
aI145
aI630
aI567
aI401
aI690
aI230
aI630
aI1324
aI1050
aI4286
aI246
aI124
aI220
aI419
aI380
aI190
aI887
aI95
aI261
aI404
aI198
aI120
aI116
aI336
aI913
aI171
aI275
aI1056
aI1681
aI2439
aI1145
aI1179
aI164
aI31
aI617
aI1559
aI563
aI376
aI1643
aI664
aI718
aI368
aI1159
aI267
aI47
aa(lp306
I281
aI143
aI481
aI469
aI561
aI2037
aI362
aI62
aI820
aI246
aI679
aI574
aI71
aI32
aI70
aI103
aI283
aI124
aI86
aI299
aI499
aI761
aI207
aI314
aI462
aI89
aI85
aI517
aI238
aI401
aI272
aI402
aI211
aI226
aI77
aI177
aI918
aI323
aI934
aI282
aI126
aI241
aI46
aI89
aI19
aI95
aI198
aI49
aI373
aI21
aI844
aI190
aI314
aI231
aI354
aI126
aI118
aI99
aI125
aI123
aI15
aI493
aI819
aI384
aI245
aI303
aI204
aI324
aI472
aI76
aI154
aI153
aI475
aI503
aI34
aI242
aI70
aI229
aI19
aI24
aI89
aI297
aI176
aI417
aI334
aI94
aI228
aI393
aI61
aI174
aI634
aI328
aI208
aI675
aI1054
aI174
aa(lp307
I117
aI30
aI1547
aI535
aI174
aa(lp308
I198
aa(lp309
I88
aI59
aI191
aI159
aI194
aa(lp310
I333
aa(lp311
I362
aI534
aI886
aI561
aI1782
aI1995
aI1277
aI176
aI295
aI205
aI289
aa(lp312
I165
aa(lp313
I324
aI35
aI92
aI249
aI39
aI152
aI386
aI233
aI341
aa(lp314
I838
aI77
aI150
aI186
aI172
aI121
aI44
aI10
aa(lp315
I225
aI252
aa(lp316
I418
aI61
aI901
aI40
aI33
aI12
aa(lp317
I178
aI61
aI623
aI521
aI221
aI829
aI216
aI46
aI114
aI232
aI334
aI124
aI28
aI107
aI27
aI62
aI76
aa(lp318
I76
aI292
aI33
aI29
aI20
aI42
aI62
aa(lp319
I590
aI126
aI83
aI118
aI174
aI171
aI300
aI177
aI600
aI64
aI330
aI158
aI322
aI187
aI69
aI68
aI192
aI637
aI942
aI332
aI230
aI204
aI68
aI37
aI65
aI822
aI270
aI653
aI328
aI1046
aI631
aI167
aI172
aI179
aI592
aI127
aI111
aI355
aI138
aI164
aI350
aI96
aI856
aI82
aI330
aI194
aI194
aI131
aI32
aI958
aI361
aI477
aI750
aI925
aI378
aI550
aI235
aI930
aI290
aI40
aI18
aI12
aI120
aI128
aI203
aI94
aI58
aI113
aa(lp320
I296
aI164
aI66
aI201
aa(lp321
I54
aI276
aI404
aa(lp322
I33
aI64
aI190
aI110
aI385
aI82
aI18
aI91
aa(lp323
I29
aI30
aa(lp324
I63
aI82
aa(lp325
I68
aI363
aI146
aa(lp326
I455
aI293
aI352
aI455
aI355
aa(lp327
I1087
aI350
aI592
aI66
aI250
aI288
aI302
aI78
aa(lp328
I118
aI104
aI123
aI30
aa(lp329
I165
aI113
aI65
aI48
aa(lp330
I16
aI181
aI2858
aI203
aI513
aI504
aI294
aI719
aI200
aI324
aI446
aI103
aa(lp331
I241
aa(lp332
I778
aI1410
aI478
aI548
aI34
aI68
aI125
aI76
aI370
aI102
aI46
aI404
aI59
aI46
aI284
aI713
aI429
aI264
aI62
aI93
aI63
aI22
aI185
aI85
aI1272
aI257
aI169
aI53
aI140
aI35
aI232
aI338
aa(lp333
I134
aa(lp334
I708
aI259
aI172
aI26
aa(lp335
I161
aI1473
aI36
aI335
aI112
aI208
aI580
aI615
aI445
aI173
aI440
aI116
aI377
aI118
aI417
aI314
aI548
aI512
aI29
aI146
aI341
aI58
aI337
aI863
aa(lp336
I871
aI161
aI248
aI756
aI663
aI191
aI134
aI775
aI169
aI942
aI2847
aI279
aI108
aI54
aI509
aI976
aI403
aI196
aI536
aI183
aI287
aI602
aI291
aI60
aI61
aI112
aI317
aI210
aI350
aI649
aI203
aI534
aI249
aI537
aI604
aI215
aI427
aI360
aI320
aI605
aI147
aI219
aI221
aI207
aI238
aI75
aI254
aI581
aI203
aI97
aI451
aI54
aI47
aI499
aa(lp337
I113
aa(lp338
I758
aI288
aa(lp339
I1102
aI246
aI476
aI161
aI258
aI1075
aI416
aI30
aI160
aI311
aI1063
aI159
aI901
aI88
aI208
aI17
aI60
aI133
aI428
aI30
aI196
aI164
aI58
aI71
aI94
aI166
aI84
aI109
aI55
aI128
aI48
aI194
aI44
aI21
aI13
aI79
aI115
aI12
aI15
aI14
aI86
aI143
aI27
aa(lp340
I1676
aI705
aI784
aI259
aI185
aa(lp341
I176
aI167
aI66
aa(lp342
I92
aI291
aI26
aI209
aI88
aI179
aa(lp343
I89
aI58
aa(lp344
I84
aI72
aa(lp345
I281
aI156
aI79
aa(lp346
I28
aI162
aI35
aI189
aa(lp347
I436
aI117
aI232
aI441
aa(lp348
I30
aa(lp349
I3278
aI342
aI392
aI101
aI14
aI32
aa(lp350
I364
aI326
aI300
aI645
aI262
aI116
aI754
aI133
aI145
aI67
aI1678
aI245
aI65
aI148
aI204
aI297
aI468
aI574
aI462
aI78
aa(lp351
I64
aI29
aI120
aI560
aI105
aI46
aI58
aI152
aI135
aI67
aI61
aI690
aI36
aI71
aI72
aI194
aI95
aI51
aI36
aI120
aI91
aI245
aI85
aI30
aI51
aI59
aI26
aI151
aI88
aI50
aI70
aI18
aI36
aI216
aI50
aI168
aI106
aI51
aI92
aI33
aI43
aI194
aI47
aI135
aI134
aI37
aI33
aI48
aI31
aI31
aI66
aI118
aI82
aI73
aI138
aI64
aI177
aI129
aI148
aI60
aI353
aI86
aI207
aI41
aI92
aI27
aI140
aI110
aI61
aI25
aI32
aI25
aI58
aI67
aI92
aI113
aI97
aI51
aI106
aI115
aI122
aI41
aI25
aI118
aI55
aI425
aI25
aI36
aI69
aI93
aI81
aI74
aI173
aI15
aI216
aI125
aI213
aI69
aI71
aI35
aI106
aI121
aI22
aI19
aa(lp352
I267
aa(lp353
I55
aI48
aa(lp354
I134
aI129
aI76
aI39
aI37
aI69
aI142
aI799
aI774
aI1032
aI249
aa(lp355
a(lp356
I512
aI205
aa(lp357
I120
aI204
aa(lp358
I98
aa(lp359
I149
aI194
aa(lp360
a(lp361
I177
aI1051
aI82
aI340
aa(lp362
I547
aI1343
aI251
aI757
aI240
aI454
aI251
aI94
aI23
aI68
aI43
aI271
aa(lp363
a(lp364
I224
aI896
aI254
aI80
aI174
aI362
aI53
aa(lp365
I78
aI56
aI55
aa(lp366
I333
aI369
aI153
aa(lp367
I258
aI52
aI44
aa(lp368
I59
aI1116
aI61
aI251
aI234
aI348
aI133
aI155
aI157
aI374
aI312
aI291
aI103
aI41
aI187
aI92
aI263
aI233
aa(lp369
I239
aI219
aI239
aa(lp370
I124
aa(lp371
I1690
aI951
aa(lp372
I159
aI547
aI74
aI210
aI264
aI167
aI161
aI43
aI170
aI1253
aI1150
aI799
aI695
aI909
aI579
aI1850
aI1041
aI1085
aI606
aI916
aa(lp373
I356
aI204
aa(lp374
I390
aI1564
aI1842
aa(lp375
I104
aI81
aa(lp376
I20
aa(lp377
a(lp378
I337
aI181
aI137
aa(lp379
I825
aI374
aI546
aI1400
aI1107
aa(lp380
I302
aI489
aI234
aI141
aI326
aI74
aI38
aI151
aI223
aI559
aI700
aI637
aI467
aI677
aa(lp381
I284
aI364
aI66
aI75
aI88
aI27
aI53
aI321
aI1193
aI101
aI93
aI77
aI237
aI349
aI346
aI149
aa(lp382
I50
aa(lp383
I381
aI150
aI250
aa(lp384
I532
aI243
aI122
aI1039
aI187
aI1277
aI590
aI354
aI877
aI555
aI133
aI175
aI405
aI183
aI177
aI96
aI24
aI367
aI12
aI199
aI29
aI143
aI71
aI246
aI82
aI681
aI368
aI240
aI560
aI247
aI357
aI171
aI78
aa(lp385
I291
aI209
aI1081
aI518
aI510
aa(lp386
I304
aa(lp387
I823
aa(lp388
I1103
aa(lp389
I519
aa(lp390
I142
aI1943
aI293
aI476
aI602
aI196
aI66
aI89
aI47
aI95
aI72
aI120
aI1091
aI273
aI224
aI665
aI126
aI284
aI108
aI54
aI76
aa(lp391
I451
aI244
aI139
aI19
aI629
aa(lp392
I70
aI10
aI19
aI30
aI192
aI219
aI54
aI111
aI856
aI1027
aI731
aI120
aI1250
aI150
aa(lp393
I155
aI336
aI186
aI649
aI459
aI316
aI649
aI100
aI113
aI488
aI58
aI229
aI130
aI212
aI540
aI207
aI572
aa(lp394
I107
aI731
aI699
aI202
aI124
aI233
aI160
aI94
aI118
aI11
aa(lp395
I66
aa(lp396
I1321
aI312
aI371
aa(lp397
I87
aa(lp398
I141
aI54
aI52
aa(lp399
I456
aI332
aI299
aI340
aI268
aI363
aI43
aI872
aI731
aI494
aI22
aI135
aI953
aI727
aI51
aa(lp400
I67
aI93
aa(lp401
I647
aa(lp402
I836
aI265
aa(lp403
I197
aI40
aI66
aI67
aI202
aa(lp404
I654
aI283
aI193
aI171
aI470
aI229
aI508
aI17
aI440
aI2002
aI556
aI547
aI208
aI233
aI300
aI377
aI277
aI946
aI271
aI166
aI108
aI469
aI922
aa(lp405
I86
aa(lp406
I1026
aa(lp407
I145
aI45
aa(lp408
I25
aI92
aa(lp409
I274
aI135
aI279
aa(lp410
I253
aI582
aI429
aI166
aI135
aI784
aI236
aI653
aI403
aI193
aI348
aI115
aI273
aI262
aI915
aI124
aa(lp411
I756
aI139
aI44
aI258
aa(lp412
I73
aI82
aI308
aI52
aa(lp413
I84
aI136
aI263
aI147
aI106
aI194
aI203
aa(lp414
I291
aI16
aa(lp415
I42
aI99
aa(lp416
I159
aI179
aI894
aI151
aI31
aI540
aI188
aI91
aa(lp417
I40
aI209
aI320
aI60
aI277
aI106
aI135
aI50
aI85
aI177
aI1871
aI186
aI156
aI61
aI102
aI95
aI537
aI636
aI207
aI138
aI141
aI421
aI397
aI40
aI143
aI501
aI142
aI51
aI100
aI93
aI223
aI179
aI52
aI136
aI1393
aI14
aI155
aI315
aI84
aI506
aI77
aI64
aI32
aI25
aI126
aI357
aI241
aI290
aI93
aI69
aI63
aI17
aI65
aI87
aI117
aI151
aI98
aI39
aI135
aI120
aI88
aI72
aI93
aI37
aI11
aI283
aI228
aI174
aI120
aI222
aI27
aI31
aI16
aI71
aI66
aI373
aI147
aI42
aI120
aI40
aI25
aI9
aI232
aI61
aI71
aI99
aI84
aI200
aI156
aI121
aI131
aI269
aI94
aI98
aI134
aI239
aI17
aI181
aI387
aI90
aI31
aa(lp418
I255
aI159
aa(lp419
I99
aI117
aI269
aI469
aI224
aI84
aI714
aI744
aI302
aI102
aI649
aI594
aI417
aI216
aI530
aI637
aI421
aI393
aI291
aI129
aI441
aI400
aI531
aI289
aI125
aI28
aI142
aI544
aI227
aI58
aI44
aI75
aI124
aI143
aI125
aI38
aI67
aI107
aI139
aa(lp420
I51
aI131
aI40
aI99
aI22
aI203
aa(lp421
I70
aI241
aI252
aI193
aI569
aI62
aI81
aI101
aI105
aI75
aI269
aI256
aI651
aI671
aI655
aI586
aI481
aI881
aI123
aI566
aI104
aI120
aI238
aI257
aI401
aI60
aI24
aI73
aI119
aI41
aI79
aI31
aI211
aI197
aI70
aa(lp422
I1252
aI2800
aI913
aI149
aI116
aI106
aI112
aI2079
aI645
aI2228
aI1107
aI320
aI474
aI1146
aI1573
aI717
aI641
aa(lp423
I240
aI338
aI200
aa(lp424
I199
aI80
aa(lp425
I828
aI3615
aI1271
aI365
aa(lp426
I158
aI98
aI65
aa(lp427
I96
aI222
aa(lp428
I111
aI151
aa(lp429
I293
aI266
aI277
aI651
aI201
aI378
aI89
aI157
aI448
aI106
aa(lp430
I120
aI97
aI137
aI299
aI70
aa(lp431
I43
aI44
aI83
aI42
aI213
aI255
aI684
aI65
aI17
aI112
aI451
aI409
aI14
aI13
aI263
aI99
aI31
aI42
aI11
aI61
aI113
aI108
aI69
aI60
aI39
aI80
aI29
aI27
aI56
aI70
aI159
aI99
aI201
aI774
aI227
aI37
aI129
aI123
aI94
aI64
aI100
aI265
aI18
aI85
aI27
aI153
aI185
aI218
aI57
aI60
aI144
aI94
aI223
aI2429
aI52
aI55
aI15
aI9
aI412
aI14
aI60
aI37
aI11
aI72
aI132
aI123
aI114
aI1125
aI126
aI124
aI105
aI191
aI104
aI140
aI36
aI110
aI179
aI74
aI12
aI103
aI417
aI172
aI170
aI56
aI61
aI51
aI528
aI70
aI24
aI94
aI134
aI63
aI593
aI180
aI247
aI248
aI210
aI68
aI183
aI42
aI324
aI19
aI91
aI34
aI22
aI78
aI26
aI105
aI46
aa(lp432
I431
aI277
aI323
aI537
aa(lp433
I63
aa(lp434
I472
aa(lp435
I291
aa(lp436
I185
aI176
aI93
aI214
aI96
aI13
aI621
aI111
aI68
aI1009
aI556
aI180
aI156
aI162
aI459
aI237
aI94
aI353
aI92
aI1037
aI673
aI256
aI175
aI84
aI140
aI1244
aI327
aI175
aI1016
aI117
aI234
aI63
aI185
aI122
aI1288
aI147
aI161
aI1765
aI1410
aI332
aI42
aI258
aI199
aI351
aa(lp437
I292
aI224
aI321
aI41
aI115
aI417
aI372
aI383
aI173
aa(lp438
I138
aa(lp439
I262
aI477
aI1693
aI90
aI139
aI1274
aI47
aI1308
aI45
aI536
aI34
aI209
aI143
aI1011
aI742
aI682
aI2048
aI1613
aI90
aI171
aI81
aI69
aI128
aI258
aI192
aI152
aI161
aI45
aI105
aI39
aI30
aI61
aI139
aI81
aI150
aI3179
aI227
aI624
aI647
aI2256
aI244
aI78
aI703
aI469
aI568
aI638
aI482
aI742
aI350
aI573
aI391
aI81
aI1011
aI555
aI456
aI123
aI88
aI171
aI545
aI242
aI252
aI104
aI204
aI531
aI57
aI68
aI111
aI176
aI313
aI766
aI237
aI634
aI337
aI427
aI412
aI139
aI52
aI77
aI35
aa(lp440
I230
aa(lp441
I126
aa(lp442
I226
aI167
aI163
aI933
aI288
aI41
aI86
aI127
aI1796
aI539
aI601
aI409
aI1930
aI1807
aI133
aI269
aI88
aI31
aI68
aI187
aI316
aI119
aI210
aI213
aI977
aI401
aI643
aI2549
aI247
aI266
aI541
aI147
aI13
aI875
aI242
aI406
aI886
aI451
aI376
aI193
aI203
aI770
aI519
aI803
aI147
aI256
aI273
aI93
aI77
aI341
aI458
aI33
aI70
aI572
aI1376
aI329
aI258
aI166
aI202
aI572
aI204
aI160
aI203
aI195
aI201
aI429
aI639
aI825
aI345
aI693
aI175
aI269
aI342
aI169
aI161
aI150
aI107
aI105
aa(lp443
I1021
aI923
aI329
aI339
aI47
aI47
aI518
aa(lp444
I142
aI60
aa(lp445
I219
aI220
aI388
aI250
aI201
aI334
aa(lp446
I458
aa(lp447
I219
aI50
aI90
aa(lp448
I72
aI57
aa(lp449
I87
aI12
aa(lp450
a(lp451
I322
aI72
aI163
aI183
aI612
aI362
aI84
aI114
aI162
aI52
aI137
aI389
aI17
aa(lp452
I408
aI166
aI892
aI36
aI246
aa(lp453
I140
aI52
aI388
aI760
aI1286
aI62
aI294
aI108
aI35
aa(lp454
I242
aI125
aI52
aI46
aI96
aI309
aI1512
aI547
aI341
aI197
aa(lp455
I105
aI122
aI46
aa(lp456
I213
aI106
aI204
aI22
aa(lp457
I14
aI92
aI67
aa(lp458
I373
aa(lp459
I104
aa(lp460
I133
aa(lp461
I529
aI210
aI147
aI181
aI420
aI286
aI48
aI1032
aI362
aI59
aI113
aI453
aI496
aI332
aI87
aI95
aI353
aI359
aI206
aI628
aI339
aI188
aI435
aI392
aI182
aI156
aI633
aI194
aI983
aI445
aI113
aI13
aI358
aa(lp462
I1623
aI2836
aa(lp463
I95
aI352
aI169
aI178
aI178
aI394
aa(lp464
I107
aI183
aa(lp465
I836
aI330
aI90
aI15
aa(lp466
I129
aI469
aa(lp467
I108
aa(lp468
I24
aI176
aI107
aI66
aI167
aI56
aI53
aI97
aI75
aI259
aI23
aI494
aI43
aa(lp469
I151
aI165
aa(lp470
I222
aI1420
aI589
aI237
aI126
aI286
aI341
aI371
aI404
aI286
aI405
aI617
aI627
aI872
aI438
aI446
aI211
aI412
aI358
aI259
aI1090
aI478
aI982
aI87
aI130
aI923
aI960
aI626
aI228
aI411
aI585
aI722
aI1038
aI1150
aI393
aI309
aI278
aI851
aI63
aI1242
aI436
aI664
aI485
aI571
aa(lp471
I186
aI1062
aI348
aI912
aI754
aI308
aI279
aa(lp472
I37
aI147
aI131
aI106
aI296
aI268
aI82
aI1711
aI1107
aI778
aI630
aI124
aI1534
aI822
aI36
aI119
aa(lp473
I144
aa(lp474
I194
aI52
aI1283
aa(lp475
I104
aI48
aI785
aa(lp476
I95
aI71
aI123
aI17
aI447
aI249
aI61
aI206
aa(lp477
I255
aI66
aI226
aI233
aI137
aI172
aI11
aI28
aI498
aa(lp478
I28
aa(lp479
I304
aa(lp480
I2703
aI256
aa(lp481
I18
aa(lp482
I236
aa(lp483
I94
aI740
aI220
aI258
aI104
aI27
aa(lp484
I326
aa(lp485
I173
aI499
aI359
aI621
aI205
aI814
aI838
aI540
aI236
aI166
aI414
aI130
aI1126
aI160
aI826
aI530
aI137
aI245
aI365
aI661
aa(lp486
I270
aI526
aI200
aa(lp487
I1483
aI862
aI1174
aI193
aI692
aI147
aa(lp488
I87
aI223
aa(lp489
I277
aa(lp490
I82
aI137
aI74
aa(lp491
I78
aI195
aI108
aa(lp492
I160
aI310
aI570
aI1732
aI865
aI1987
aI1659
aI114
aI23
aI52
aI501
aI64
aI353
aI655
aI437
aI211
aI672
aI507
aI135
aI196
aa(lp493
I367
aI630
aa(lp494
I137
aa(lp495
I22
aa(lp496
I85
aI72
aI261
aI56
aI56
aI412
aI188
aI87
aa(lp497
I137
aI70
aI85
aI80
aa(lp498
I663
aI50
aa(lp499
I27
aI96
aI183
aI606
aa(lp500
I247
aI720
aI333
aI37
aI445
aI1459
aI120
aI365
aI1836
aI468
aI300
aI510
aI658
aI61
aI965
aI714
aI1204
aI457
aI303
aI153
aI1217
aI211
aI48
aI314
aI1866
aI118
aI1094
aI398
aI300
aI133
aI554
aI292
aI897
aI882
aI313
aI229
aI351
aI253
aI704
aI1423
aI937
aI566
aI499
aI258
aI54
aI389
aI108
aI602
aI285
aI899
aI360
aI72
aI293
aa(lp501
I145
aa(lp502
I20
aa(lp503
I89
aa(lp504
I842
aI468
aI445
aI1279
aI1590
aI527
aI560
aI149
aI401
aI166
aa(lp505
I92
aa(lp506
I124
aI282
aI528
aI206
aI793
aI205
aI64
aI44
aI86
aI415
aI107
aI102
aI378
aI83
aI157
aI27
aI39
aI96
aI49
aI251
aI78
aI74
aa(lp507
I416
aI529
aI32
aa(lp508
I66
aa(lp509
I86
aa(lp510
I536
aI656
aa(lp511
I88
aI78
aa(lp512
I249
aa(lp513
I39
aI18
aI46
aa(lp514
I50
aI219
aa(lp515
I523
aI258
aI426
aI425
aI312
aI336
aI488
aI943
aI833
aI725
aI253
aI599
aa(lp516
I344
aI726
aI103
aI1285
aI433
aI705
aa(lp517
I19
aa(lp518
I993
aa(lp519
I89
aI1403
aI739
aa(lp520
I248
aI55
aI100
aI124
aa(lp521
I78
aI202
aI560
aI297
aI78
aI108
aI482
aI84
aI103
aI340
aI720
aI868
aI60
aI94
aI862
aI196
aI88
aI663
aI103
aI141
aa(lp522
I1940
aI511
aI564
aI131
aI479
aI169
aI110
aa(lp523
I112
aa(lp524
I286
aa(lp525
I180
aI175
aI219
aI472
aa(lp526
I670
aI818
aI903
aI1312
aI969
aI264
aI146
aI550
aI555
aI413
aI1337
aI212
aI433
aI123
aI1158
aI437
aI1053
aI469
aI1902
aI681
aI730
aI81
aI1412
aI299
aI127
aI729
aI563
aI625
aI195
aI234
aI165
aI441
aI26
aI51
aI386
aI307
aI414
aI1740
aI187
aI677
aI301
aI839
aI190
aI686
aI65
aI992
aI2622
aI13
aI625
aI151
aI402
aI16
aI391
aI581
aI85
aI171
aI366
aI531
aI172
aI277
aI210
aI610
aI210
aI710
aI121
aI286
aI394
aI250
aI27
aI25
aI47
aa(lp527
I365
aa(lp528
I132
aI380
aI83
aI17
aa(lp529
I69
aI192
aI95
aI51
aI155
aa(lp530
I42
aI91
aI81
aI76
aI760
aI269
aa(lp531
I940
aI227
aI1927
aI1743
aI220
aI1392
aI891
aI195
aI351
aI168
aI268
aI405
aI305
aI795
aI134
aI123
aI57
aI813
aI153
aa(lp532
I348
aI377
aI387
aI489
aI251
aI231
aI72
aa(lp533
I1509
aI58
aI86
aa(lp534
I147
aa(lp535
I873
aI303
aI436
aI1142
aI799
aI1571
aI769
aI84
aI95
aa(lp536
I51
aI526
aa(lp537
I1210
aa(lp538
I368
aI186
aI568
aI232
aI399
aI101
aI123
aI181
aI176
aI205
aI240
aI76
aI1499
aI278
aI449
aI240
aI120
aI135
aa(lp539
I278
aI131
aI418
aI63
aI40
aI384
aI191
aI133
aa(lp540
I114
aa(lp541
I277
aI1014
aa(lp542
I423
aI94
aI1588
aI86
aI292
aI74
aI126
aI575
aI93
aI849
aa(lp543
I1293
aI28
aI93
aI173
aI256
aI192
aI382
aI245
aI87
aI176
aI128
aI111
aa(lp544
I58
aI58
aI157
aI586
aI279
aI105
aI347
aI562
aI1188
aI266
aI204
aI230
aI463
aI310
aI155
aI199
aI117
aI265
aI126
aI29
aI256
aa(lp545
I216
aa(lp546
I317
aI132
aI97
aI229
aI36
aa(lp547
I152
aI472
aa(lp548
I882
aI210
aI295
aI134
aI271
aI10
aI121
aI133
aa(lp549
I61
aa(lp550
I57
aI274
aI58
aI60
aa(lp551
I287
aa(lp552
I889
aI47
aa(lp553
I188
aI79
aa(lp554
I143
aI1495
aI418
aI112
aI168
aI102
aI554
aI75
aI784
aI1021
aI136
aI251
aI551
aI102
aI121
aI98
aI375
aI632
aI1019
aI1399
aI769
aa(lp555
I1261
aI152
aI1162
aI908
aI267
aI545
aI296
aI54
aI424
aI104
aI173
aI89
aI221
aa(lp556
I929
aI1525
aI360
aI3243
aI306
aI282
aI943
aI1404
aI405
aI298
aI163
aI398
aI379
aa(lp557
I321
aI1914
aI169
aI256
aI109
aI868
aI367
aI551
aI394
aI104
aa(lp558
I16
aI123
aa(lp559
I277
aI1427
aI141
aI1124
aI233
aI254
aI380
aI2087
aI1989
aI291
aI579
aI120
aI304
aI375
aI559
aI333
aI582
aI149
aI414
aI64
aI669
aI439
aI688
aI117
aI35
aI113
aI705
aI335
aI240
aI539
aI133
aI194
aI203
aI117
aI117
aI380
aI50
aI108
aI106
aI408
aI162
aI582
aI675
aI686
aI33
aI130
aI83
aI79
aI95
aI11
aI525
aI44
aI78
aI133
aI59
aI204
aI372
aI146
aI219
aI233
aI282
aI180
aI165
aI85
aI768
aI400
aI1341
aI92
aI807
aI105
aI653
aI342
aI289
aI166
aI122
aI223
aI35
aI299
aI67
aI108
aI342
aI225
aI283
aI134
aI785
aI681
aI491
aI11
aI40
aI44
aI204
aa(lp560
I962
aI130
aI142
aa(lp561
I190
aa(lp562
I518
aI59
aa(lp563
I61
aa(lp564
I197
aa(lp565
I143
aI344
aa(lp566
I45
aI200
aa(lp567
I281
aI588
aI556
aI129
aI108
aI185
aa(lp568
I536
aI116
aa(lp569
I76
aI337
aI124
aI146
aa(lp570
I201
aI74
aI252
aI10
aI354
aI112
aa(lp571
a(lp572
I158
aI26
aa(lp573
I170
aI243
aa(lp574
I600
aI226
aI200
aI190
aI224
aI98
aI164
aI204
aI199
aI1056
aI822
aI801
aI2556
aI781
aI82
aI191
aI300
aI615
aI311
aI809
aI176
aa(lp575
I163
aa(lp576
I93
aI150
aI235
aI198
aI151
aa(lp577
I355
aa(lp578
I133
aa(lp579
I29
aI97
aI185
aI248
aI211
aI325
aI637
aI166
aI969
aI344
aa(lp580
I28
aa(lp581
I61
aI158
aI128
aI198
aI318
aI312
aa(lp582
I281
aI514
aI68
aI578
aI43
aI487
aa(lp583
I91
aa(lp584
I42
aa(lp585
I219
aI408
aI212
aI216
aa(lp586
I360
aI128
aI79
aI22
aa(lp587
I349
aI83
aI1103
aa(lp588
I154
aa(lp589
I143
aa(lp590
I196
aI39
aI102
aI68
aI556
aI104
aI74
aI119
aI96
aI169
aI347
aI32
aI792
aI184
aI16
aa(lp591
I45
aI44
aa(lp592
I72
aI67
aa(lp593
I258
aI81
aI1045
aI136
aI108
aI214
aI365
aI261
aa(lp594
I718
aI103
aI106
aI96
aa(lp595
I543
aI110
aI260
aI76
aI33
aI46
aI42
aI320
aI265
aI491
aI190
aI334
aI73
aI46
aI39
aI321
aI199
aI20
aI79
aI48
aI100
aI340
aI595
aI619
aI833
aI1145
aI220
aI190
aI185
aI53
aa(lp596
I304
aI146
aI575
aI103
aI159
aI209
aI142
aI140
aI158
aI60
aI113
aI49
aI26
aI206
aI1091
aa(lp597
I800
aa(lp598
I668
aI134
aI238
aI536
aI67
aI347
aI221
aI3037
aI1433
aI991
aI345
aI379
aI820
aI65
aI436
aI266
aI85
aI626
aI874
aI731
aI380
aI136
aI116
aI271
aI289
aI453
aI259
aI133
aI1996
aI1256
aI528
aI216
aI662
aI705
aI1431
aI400
aI334
aI1003
aI128
aI240
aI318
aI64
aI102
aI543
aI53
aI142
aI1038
aI350
aI499
aI814
aI699
aI917
aI972
aI177
aI602
aI215
aI1570
aI127
aI357
aI188
aI51
aa(lp599
I98
aa(lp600
I538
aI264
aa(lp601
I196
aI181
aI414
aI724
aI180
aI1580
aI24
aI143
aI20
aI140
aI183
aI40
aI1201
aI535
aI127
aa(lp602
I31
aa(lp603
I189
aa(lp604
I155
aI322
aa(lp605
I62
aI82
aa(lp606
I442
aI75
aa(lp607
I596
aI55
aI513
aI150
aI170
aI43
aI82
aI181
aI76
aa(lp608
I75
aa(lp609
I203
aI200
aa(lp610
I186
aI114
aI185
aa(lp611
I109
aI266
aI405
aI168
aI37
aI133
aI163
aI349
aI182
aI49
aI26
aI11
aI39
aa(lp612
I52
aI96
aI130
aI240
aI187
aI96
aa(lp613
I323
aI22
aI17
aI23
aI178
aI117
aI156
aI335
aa(lp614
I87
aI123
aa(lp615
I281
aI78
aI217
aI1022
aa(lp616
I66
aI1361
aI1132
aI72
aa(lp617
I72
aI54
aI524
aa(lp618
I217
aI141
aI59
aI32
aI66
aI733
aI71
aI463
aI84
aI55
aI235
aI231
aI39
aI151
aI20
aI126
aI614
aI111
aI102
aa(lp619
I252
aI321
aI413
aI585
aa(lp620
I413
aI128
aI43
aI336
aI230
aI153
aI95
aI65
aI137
aI103
aI165
aI18
aI16
aI108
aI51
aI210
aI58
aI122
aI131
aI37
aI325
aI21
aI32
aI13
aI160
aI50
aa(lp621
I58
aI67
aa(lp622
I51
aI210
aI224
aI71
aI87
aI22
aI235
aI41
aa(lp623
I237
aI376
aI222
aI599
aI851
aI1086
aI68
aI60
aI18
aI313
aI143
aI300
aI42
aI94
aI47
aI47
aI74
aI201
aI130
aI66
aI431
aI26
aI70
aI46
aI57
aI405
aI797
aI64
aa(lp624
I328
aa(lp625
I27
aa(lp626
I994
aI74
aI329
aI583
aI579
aI149
aI148
aI276
aI210
aI376
aI876
aI48
aI59
aI31
aa(lp627
I95
aI15
aa(lp628
I67
aI957
aI1212
aa(lp629
I40
aI153
aI121
aa(lp630
I88
aI182
aI147
aI120
aI89
aI142
aI70
aa(lp631
I36
aI118
aI13
aI183
aI541
aa(lp632
I632
aI519
aI727
aI233
aI272
aI94
aI225
aI10
aI147
aa(lp633
I196
aI634
aI229
aI380
aI36
aI738
aa(lp634
I615
aI160
aI1479
aI118
aI757
aI523
aI114
aI1002
aI366
aI835
aI68
aI401
aI66
aa(lp635
I168
aI388
aI613
aI589
aI34
aI205
aI249
aI22
aI13
aI548
aI359
aI371
aI433
aI31
aI451
aI67
aI523
aI830
aI43
aI16
aI838
aI376
aI64
aI307
aI238
aI55
aI1223
aI1484
aI128
aI129
aa(lp636
I711
aI799
aa(lp637
I117
aa(lp638
I225
aI280
aI175
aI83
aa(lp639
I30
aa(lp640
I129
aI301
aI65
aI24
aI207
aa(lp641
I186
aa(lp642
I139
aI957
aI759
aI188
aa(lp643
I436
aI183
aI159
aI116
aI16
aa(lp644
I323
aa(lp645
I186
aI593
aI85
aI339
aI315
aI222
aI331
aI163
aI338
aI226
aI368
aI442
aI19
aa(lp646
I486
aa(lp647
I85
aI233
aI30
aa(lp648
a(lp649
I175
aI20
aa(lp650
I71
aI1691
aI146
aI140
aI285
aI395
aI178
aa(lp651
I73
aa(lp652
I84
aI63
aI76
aI88
aI12
aI101
aa(lp653
I87
aI90
aa(lp654
I168
aa(lp655
I264
aI119
aI107
aI751
aI599
aI252
aI420
aI26
aI46
aI164
aI502
aI676
aI158
aI54
aI10
aI93
aI311
aI130
aI39
aI101
aI227
aI148
aI195
aI39
aI15
aa(lp656
I102
aa(lp657
I186
aI167
aI307
aI162
aa(lp658
I91
aI127
aa(lp659
I437
aa(lp660
I115
aI529
aa(lp661
I429
aa.