(dp1
I0
(irpdb2
CBreakPoint
p2
(dp3
S'm_id'
p4
I0
sS'm_scope_first_line'
p5
I50
sS'm_fEnabled'
p6
I01
sS'm_code'
p7
NsS'm_fTemporary'
p8
I00
sS'm_scope_offset'
p9
I76
sS'm_scope_fqn'
p10
S'?'
sS'm_lineno'
p11
I126
sS'm_filename'
p12
S'd:\\code\\python\\del.back.up\\delbackup.py'
p13
sS'm_scope_name'
p14
S'?'
sS'm_expr'
p15
S''
sbs.